(lp0
(dp1
S'baby'
p2
(I0
S'baby products'
p3
F0.5371024734982333
F0.8355263157894737
tp4
sS'crafts & sewing'
p5
(I0
S'arts crafts & sewing'
p6
F0.7034088589508063
F0.7832269297736506
tp7
sS'health & beauty'
p8
(I0
S'beauty'
p9
F0.8354288907516066
F0.9456521739130435
tp10
sS'eziba'
p11
(I0
S'home & kitchen'
p12
F1.0
F0.9809523809523809
tp13
sS'home & garden'
p14
(I0
S'home & kitchen'
p15
F0.7775562677001043
F0.8872355210504876
tp16
sS'bedding & bath'
p17
(I0
S'home & kitchen'
p18
F0.9182595007870474
F0.9103710052650912
tp19
sS'o.biz'
p20
(I2
S'home decor accents'
p21
F0.917910447761194
F0.8800813008130082
tp22
sS'luggage & bags'
p23
(I1
S'luggage & bags'
p24
F0.9311981020166074
F0.9796178343949045
tp25
sS'pet supplies'
p26
(I0
S'pet supplies'
p27
F0.8453292496171516
F0.9221014492753623
tp28
sS'worldstock fair trade'
p29
(I0
S'jewelry'
p30
F0.4663745304954391
F0.900287631831256
tp31
sS'jewelry & watches'
p32
(I0
S'jewelry'
p33
F0.8547161236738595
F0.9872025228264457
tp34
sS'clothing & shoes'
p35
(I1
S'women'
p36
F0.6730286601683282
F0.8973207387797567
tp37
sS'sales & promotions'
p38
(I0
S'home & kitchen'
p39
F0.8333333333333334
F0.9
tp40
sS'main street revolution'
p41
(I0
S'jewelry'
p42
F0.4363572433192686
F0.7896857373086221
tp43
sS'sports & toys'
p44
(I1
S'fan shop'
p45
F0.5953881409338299
F0.867452489776281
tp46
sS'electronics'
p47
(I0
S'electronics'
p48
F0.6921973951487633
F0.9132861499510904
tp49
sS'office supplies'
p50
(I1
S'computers & accessories'
p51
F0.8282659538924156
F0.918515530455829
tp52
sa(dp53
S'fitness & nutrition'
p54
(I1
S'skin care'
p55
F0.6642857142857143
F0.6129032258064516
tp56
sS'janitorial & cleaning'
p57
(I2
S'touch screen tablet accessories'
p58
F0.45217391304347826
F0.5769230769230769
tp59
sS'garden & patio'
p60
(I2
S'home decor accents'
p61
F0.7576305220883535
F0.7853167240922343
tp62
sS'accessories'
p63
(I2
S'accessories'
p64
F0.9286239882266373
F0.9083465398837823
tp65
sS'outdoors'
p66
(I2
S'home & garden'
p67
F0.41244573082489144
F0.5824561403508772
tp68
sS'kitchen & dining'
p69
(I1
S'kitchen & dining'
p70
F0.8928712091374557
F0.948831054256727
tp71
sS'housewares'
p72
(I2
S'storage & organization'
p73
F0.6208530805687204
F0.7480916030534351
tp74
sS'cameras & photo'
p75
(I1
S'camera & photo'
p76
F0.8006823997725334
F0.9527698863636364
tp77
sS'tools'
p78
(I1
S'kitchen & dining'
p79
F0.48677248677248675
F0.5217391304347826
tp80
sS'blankets & throws'
p81
(I1
S'bedding'
p82
F0.9286536248561565
F0.9182156133828996
tp83
sS'collectibles'
p84
(I2
S'home & garden'
p85
F0.5171686746987951
F0.8072218986604542
tp86
sS'fashion bedding'
p87
(I1
S'bedding'
p88
F0.9961779013203613
F0.9937216602720614
tp89
sS'printers & scanners'
p90
(I1
S'computers & accessories'
p91
F0.938953488372093
F0.9705882352941176
tp92
sS'art gallery'
p93
(I1
S'artwork'
p94
F0.8450175417000062
F0.9715929783669605
tp95
sS'home decor'
p96
(I1
S'home decor'
p97
F0.8964484310869854
F0.9659202097217864
tp98
sS'bath & towels'
p99
(I1
S'bath'
p100
F0.9313432835820895
F0.9246794871794872
tp101
sS'monitors & displays'
p102
(I1
S'computers & accessories'
p103
F0.7213541666666666
F0.9338146811070999
tp104
sS'audio & video'
p105
(I3
S'cables & interconnects'
p106
F0.7737281700835231
F0.7649656526005888
tp107
sS'down bedding'
p108
(I1
S'bedding'
p109
F0.9925
F0.9899244332493703
tp110
sS'office electronics'
p111
(I2
S'cables & accessories'
p112
F0.9976825028968713
F0.9907084785133565
tp113
sS'sunglasses'
p114
(I3
S'sunglasses & eyewear accessories'
p115
F0.997250229147571
F0.9949448529411765
tp116
sS'mattress pads & toppers'
p117
(I1
S'bedding'
p118
F0.9768339768339769
F0.9565217391304348
tp119
sS'sewing & needlework'
p120
(I1
S'sewing'
p121
F0.49298245614035086
F0.7651245551601423
tp122
sS'beauty products'
p123
(I1
S'fragrance'
p124
F0.52394322258618
F0.9327180708544209
tp125
sS'golf equipment'
p126
(I2
S'sports equipment'
p127
F0.6809470124013529
F0.7798013245033113
tp128
sS'mens sport clothing'
p129
(I2
S'clothing'
p130
F0.8676470588235294
F0.9254237288135593
tp131
sS'designer store'
p132
(I2
S'accessories'
p133
F0.7565929069414974
F0.6558493589743589
tp134
sS'furniture'
p135
(I1
S'furniture'
p136
F0.9169993857493858
F0.9670936950514946
tp137
sS'memory foam'
p138
(I2
S'decorative pillows inserts & covers'
p139
F0.7488584474885844
F0.6890243902439024
tp140
sS'scrapbooking'
p141
(I1
S'scrapbooking'
p142
F0.7490918526206539
F0.9324558365084863
tp143
sS'luggage'
p144
(I2
S'luggage'
p145
F0.9679358717434869
F0.0
tp146
sS'womens sport clothing'
p147
(I2
S'clothing'
p148
F0.9544072948328267
F0.9681528662420382
tp149
sS'sale'
p150
(I1
S'furniture'
p151
F0.4236111111111111
F0.9631147540983607
tp152
sS'nursery decor'
p153
(I1
S'nursery'
p154
F1.0
F0.0
tp155
sS'kids & teen bedding'
p156
(I1
S'bedding'
p157
F0.9427792915531336
F0.9826589595375722
tp158
sS'computers hardware & software'
p159
(I1
S'computers & accessories'
p160
F0.8489369468017155
F0.9566829687751921
tp161
sS'crafts'
p162
(I1
S'beading & jewelry-making'
p163
F0.64
F0.8388157894736842
tp164
sS'sheets'
p165
(I1
S'bedding'
p166
F0.9974126778783958
F0.9883268482490273
tp167
sS'sheets & pillowcases'
p168
(I1
S'bedding'
p169
F0.9956222639149468
F0.9930904522613065
tp170
sS'pillows & protectors'
p171
(I1
S'bedding'
p172
F0.9716981132075472
F0.883495145631068
tp173
sa(dp174
S'living room furniture'
p175
(I2
S'living room furniture'
p176
F0.7251123956326269
F0.9198405668733393
tp177
sS'picnic'
p178
(I2
S'storage & organization'
p179
F0.6804123711340206
F0.7212121212121212
tp180
sS'flatware'
p181
(I2
S'tabletop'
p182
F0.9794721407624634
F0.9640718562874252
tp183
sS'commercial it hardware'
p184
(I2
S'networking products'
p185
F0.42730844793713163
F0.9080459770114943
tp186
sS'hats'
p187
(I3
S'hats & caps'
p188
F0.9820627802690582
F0.9680365296803652
tp189
sS'bed-in-a-bag'
p190
(I2
S'sheets & pillowcases'
p191
F0.83984375
F0.986046511627907
tp192
sS'sale'
p193
(I2
S'living room furniture'
p194
F0.4110032362459547
F0.6771653543307087
tp195
sS'home office furniture'
p196
(I2
S'living room furniture'
p197
F0.39603960396039606
F0.6125
tp198
sS'lcd monitors'
p199
(I2
S'monitors'
p200
F0.9122486288848263
F0.8356713426853707
tp201
sS'eyeglasses'
p202
(I3
S'sunglasses & eyewear accessories'
p203
F0.998755444928438
F0.9956386292834891
tp204
sS'keyboards & mice'
p205
(I2
S'cables & accessories'
p206
F0.7991967871485943
F0.9560301507537688
tp207
sS'pillows'
p208
(I2
S'decorative pillows inserts & covers'
p209
F0.6981132075471698
F0.8918918918918919
tp210
sS'kids furniture'
p211
(I2
S'other furniture'
p212
F0.42542372881355933
F0.9203187250996016
tp213
sS'kitchen storage'
p214
(I2
S'storage & organization'
p215
F0.8279569892473119
F0.8636363636363636
tp216
sS'area rugs'
p217
(I2
S'area rugs & pads'
p218
F0.9960946532720125
F0.9985039593489644
tp219
sS'computer components'
p220
(I3
S'cables & interconnects'
p221
F0.9329819277108434
F0.870863599677159
tp222
sS'printers & supplies'
p223
(I3
S'printer ink & toner'
p224
F0.9976825028968713
F1.0
tp225
sS'bakeware'
p226
(I2
S'bakeware'
p227
F0.6916299559471366
F0.8471337579617835
tp228
sS'optical drives'
p229
(I2
S'computer components'
p230
F0.9351851851851852
F0.9504950495049505
tp231
sS'appliances'
p232
(I2
S'tabletop'
p233
F0.3776536312849162
F0.621301775147929
tp234
sS'designer sunglasses'
p235
(I3
S'sunglasses & eyewear accessories'
p236
F1.0
F1.0
tp237
sS'down alternatives'
p238
(I2
S'sheets & pillowcases'
p239
F0.7784810126582279
F0.9024390243902439
tp240
sS'glasses & barware'
p241
(I2
S'glassware & drinkware'
p242
F0.6310160427807486
F0.8220338983050848
tp243
sS'down'
p244
(I2
S'sheets & pillowcases'
p245
F0.5537190082644629
F0.835820895522388
tp246
sS'linens & decor'
p247
(I2
S'kitchen & table linens'
p248
F0.7719442165709598
F0.8788522848034006
tp249
sS'photo accessories'
p250
(I2
S'accessories'
p251
F0.8105950653120464
F0.0
tp252
sS'dining room & bar furniture'
p253
(I2
S'dining room furniture'
p254
F0.6935779816513762
F0.926984126984127
tp255
sS'pillowcases'
p256
(I2
S'sheets & pillowcases'
p257
F0.8636363636363636
F0.9578947368421052
tp258
sS'comforter sets'
p259
(I2
S'sheets & pillowcases'
p260
F0.9619932432432432
F0.9657594381035997
tp261
sS'printers'
p262
(I2
S'cables & accessories'
p263
F0.8845315904139434
F0.8300492610837439
tp264
sS'computer hardware'
p265
(I2
S'computer components'
p266
F0.8313762329732268
F0.9338983050847458
tp267
sS'serveware'
p268
(I2
S'tabletop'
p269
F0.9187592319054653
F0.9405144694533762
tp270
sS'slipcovers'
p271
(I2
S'home decor accents'
p272
F0.7474747474747475
F0.6790540540540541
tp273
sS'mattress pads'
p274
(I2
S'sheets & pillowcases'
p275
F0.5714285714285714
F0.8108108108108109
tp276
sS'monitor accessories'
p277
(I3
S'cables & interconnects'
p278
F0.8991735537190083
F0.8933823529411765
tp279
sS'pdas'
p280
(I2
S'pdas handhelds & accessories'
p281
F0.4144144144144144
F0.6956521739130435
tp282
sS'lighting & ceiling fans'
p283
(I2
S'candles & holders'
p284
F0.5847953216374269
F0.7703225806451612
tp285
sS'cooking essentials'
p286
(I2
S'kitchen utensils & gadgets'
p287
F0.6920529801324503
F0.8899521531100478
tp288
sS'collectibles'
p289
(I2
S'home decor accents'
p290
F0.964
F0.991701244813278
tp291
sS'window treatments'
p292
(I2
S'window treatments'
p293
F0.9772610702684219
F0.9945766270118964
tp294
sS'e-book readers'
p295
(I2
S'touch screen tablet accessories'
p296
F0.9461538461538461
F0.9560975609756097
tp297
sS'floppy drives'
p298
(I3
S'cables & interconnects'
p299
F0.6707317073170732
F0.703030303030303
tp300
sS'duvet covers'
p301
(I2
S'duvet covers & sets'
p302
F0.9927641099855282
F0.9956268221574344
tp303
sS'wallets'
p304
(I3
S'wallets card cases & money organizers'
p305
F0.984182776801406
F0.9696428571428571
tp306
sS'kids bedding'
p307
(I2
S'sheets & pillowcases'
p308
F0.7384196185286104
F0.8450184501845018
tp309
sS'sheets'
p310
(I2
S'sheets & pillowcases'
p311
F1.0
F0.9990205680705191
tp312
sS'dinnerware'
p313
(I2
S'tabletop'
p314
F0.9660238751147842
F0.967680608365019
tp315
sS'bathroom furniture'
p316
(I2
S'bedroom furniture'
p317
F0.9719222462203023
F0.9933333333333333
tp318
sS'networking'
p319
(I2
S'networking products'
p320
F0.7209106239460371
F0.839766081871345
tp321
sS'quilts & bedspreads'
p322
(I2
S'sheets & pillowcases'
p323
F0.8179384203480589
F0.8952536824877251
tp324
sS'scarves & wraps'
p325
(I3
S'scarves & wraps'
p326
F0.9659949622166247
F0.9778357235984355
tp327
sS'hard drives'
p328
(I2
S'data storage'
p329
F0.735897435897436
F0.9698025551684089
tp330
sS'printer accessories'
p331
(I3
S'printer ink & toner'
p332
F0.9735849056603774
F0.9819121447028424
tp333
sS'decorative accessories'
p334
(I2
S'home decor accents'
p335
F0.7454931071049841
F0.8664453927611823
tp336
sS'computer accessories'
p337
(I3
S'cables & interconnects'
p338
F0.8812548612911589
F0.9267431597528685
tp339
sS'storage & blank media'
p340
(I2
S'data storage'
p341
F0.5717463848720801
F0.9455252918287937
tp342
sS'computers'
p343
(I2
S'laptop & netbook computer accessories'
p344
F0.44345066358915175
F0.8126219908913468
tp345
sS'cutlery'
p346
(I2
S'tabletop'
p347
F0.599009900990099
F0.768595041322314
tp348
sS'designer accessories'
p349
(I3
S'wallets card cases & money organizers'
p350
F0.5796610169491525
F0.9473684210526315
tp351
sS'blankets'
p352
(I2
S'sheets & pillowcases'
p353
F0.516245487364621
F0.7272727272727273
tp354
sS'bedroom furniture'
p355
(I2
S'bedroom furniture'
p356
F0.9745275267050123
F0.9932546374367622
tp357
sS'throws'
p358
(I2
S'decorative pillows inserts & covers'
p359
F0.981418918918919
F0.9845094664371773
tp360
sS'software'
p361
(I2
S'cables & accessories'
p362
F0.49558823529411766
F0.5103857566765578
tp363
sa(dp364
S'photo filters'
p365
(I3
S'digital camera accessories'
p366
F0.7524752475247525
F0.5789473684210527
tp367
sS'camera bags & cases'
p368
(I3
S'digital camera accessories'
p369
F0.7307692307692307
F0.7406015037593985
tp370
sS'educational'
p371
(I3
S'cables & interconnects'
p372
F0.585635359116022
F0.5094339622641509
tp373
sS'keyboard mice sets'
p374
(I3
S'keyboard & mice accessories'
p375
F0.696078431372549
F1.0
tp376
sS'printer paper'
p377
(I3
S'printer ink & toner'
p378
F0.7251461988304093
F0.6774193548387096
tp379
sS'all-in-one printers'
p380
(I3
S'printer ink & toner'
p381
F0.8633540372670807
F0.7985611510791367
tp382
sS'keyboards & keypads'
p383
(I3
S'keyboard & mice accessories'
p384
F0.8
F0.9791666666666666
tp385
sS'pc memory'
p386
(I3
S'memory'
p387
F0.9740634005763689
F0.0
tp388
sS'camera batteries & chargers'
p389
(I3
S'batteries & chargers'
p390
F0.8970588235294118
F0.9733606557377049
tp391
sS'mice & trackballs'
p392
(I3
S'keyboard & mice accessories'
p393
F0.7035398230088495
F0.7955974842767296
tp394
sS'lenses & flashes'
p395
(I3
S'digital camera accessories'
p396
F0.8997289972899729
F0.7560240963855421
tp397
sS'inkjet printers'
p398
(I3
S'printer ink & toner'
p399
F0.9133858267716536
F0.9741379310344828
tp400
sS'kvm switches'
p401
(I3
S'cables & interconnects'
p402
F0.9603960396039604
F0.9587628865979382
tp403
sa(dp404
a(dp405
a.