(lp0
(dp1
S'tv & home theater'
p2
(I0
S'electronics'
p3
F0.871228518528177
F0.9502229938040647
tp4
sS'computers & tablets'
p5
(I0
S'electronics'
p6
F0.9481642326180835
F0.9533280724075177
tp7
sS'audio & mp3'
p8
(I0
S'electronics'
p9
F0.793089671500444
F0.8610369983394593
tp10
sS'office'
p11
(I2
S'cables & accessories'
p12
F0.781812725090036
F0.8606074291520831
tp13
sS'cell phones'
p14
(I0
S'cell phones & accessories'
p15
F0.7736215691037163
F0.8581989439132296
tp16
sS'car electronics & gps'
p17
(I0
S'electronics'
p18
F0.807026954539359
F0.8817436579151434
tp19
sS'mobile phones'
p20
(I0
S'cell phones & accessories'
p21
F0.778505305938135
F0.8335266821345708
tp22
sS'cameras & camcorders'
p23
(I0
S'electronics'
p24
F0.8898540051119872
F0.8987366422433728
tp25
sS'musical instruments'
p26
(I0
S'electronics'
p27
F0.7942038423966135
F0.7462074620746207
tp28
sS'appliances'
p29
(I1
S'kitchen & dining'
p30
F0.8462422126982725
F0.8929671591917715
tp31
sa(dp32
S'tv & home theater accessories'
p33
(I2
S'audio & video accessories'
p34
F0.9843026070119633
F0.9870732050021076
tp35
sS'digital camera accessories'
p36
(I1
S'camera & photo'
p37
F0.8781277461727025
F0.938744337933214
tp38
sS'refrigerators'
p39
(I2
S'kitchen utensils & gadgets'
p40
F0.8498455690187693
F0.7453173050041935
tp41
sS'printers ink & toner'
p42
(I3
S'printer ink & toner'
p43
F0.7377551020408163
F0.8215767634854771
tp44
sS'portable speakers docks & radios'
p45
(I3
S'cables & interconnects'
p46
F0.9663270592298394
F0.8697283774124375
tp47
sS'tvs'
p48
(I1
S'television & video'
p49
F0.9000183789744532
F0.9926485603430671
tp50
sS'paper'
p51
(I3
S'printer ink & toner'
p52
F0.4084158415841584
F0.5878787878787879
tp53
sS'networking & wireless'
p54
(I1
S'computers & accessories'
p55
F0.978729675295967
F0.9895101385264004
tp56
sS'ipad tablets & e-readers'
p57
(I1
S'computers & accessories'
p58
F0.9682431511516969
F0.9690315315315315
tp59
sS'tv stands mounts & furniture'
p60
(I2
S'audio & video accessories'
p61
F0.9941941941941942
F0.9861055175191301
tp62
sS'vacuum cleaners & floor care'
p63
(I2
S'storage & organization'
p64
F0.7191659272404614
F0.8180135718692165
tp65
sS'car installation parts & accessories'
p66
(I1
S'car & vehicle electronics'
p67
F0.5633605600933489
F0.6893123446561723
tp68
sS'projectors & screens'
p69
(I3
S'cables & interconnects'
p70
F0.9543240752928788
F0.9722758620689655
tp71
sS'camcorders'
p72
(I1
S'camera & photo'
p73
F0.7707100591715976
F0.963531669865643
tp74
sS'car installation parts'
p75
(I1
S'car & vehicle electronics'
p76
F0.5991091314031181
F0.7243759957514604
tp77
sS'ranges & ovens'
p78
(I2
S'storage & organization'
p79
F0.7277580071174378
F0.7082314588427058
tp80
sS'binoculars telescopes & optics'
p81
(I1
S'camera & photo'
p82
F0.8052497883149873
F0.9619698562916229
tp83
sS'monitors'
p84
(I1
S'computers & accessories'
p85
F0.986040459008636
F0.9844031193761248
tp86
sS'ipad tablets & e-readers accessories'
p87
(I1
S'computers & accessories'
p88
F0.976063829787234
F0.9509536784741145
tp89
sS'smart tvs & devices'
p90
(I3
S'cables & interconnects'
p91
F0.9290465631929047
F0.9108989657915673
tp92
sS'camcorder accessories'
p93
(I1
S'camera & photo'
p94
F0.8095588235294118
F0.8428701180744778
tp95
sS'desktop & all-in-one computers'
p96
(I1
S'computers & accessories'
p97
F0.999903526120303
F0.9999517584060977
tp98
sS'ipad tablet & e-reader accessories'
p99
(I1
S'computers & accessories'
p100
F0.9221573742188526
F0.9265756323897515
tp101
sS'tv stands mounts & storage'
p102
(I2
S'audio & video accessories'
p103
F0.9977777777777778
F0.9962138084632517
tp104
sS'accessories'
p105
(I3
S'cables & interconnects'
p106
F0.9980719794344473
F0.9980682549903412
tp107
sS'laptops'
p108
(I1
S'computers & accessories'
p109
F0.9984792526613079
F0.9993472584856397
tp110
sS'car audio'
p111
(I1
S'car & vehicle electronics'
p112
F0.6745421903052065
F0.8321090173533482
tp113
sS'ipod & mp3 player accessories'
p114
(I1
S'portable audio & video'
p115
F0.7587297489188666
F0.879710761378137
tp116
sS'servers & thin clients'
p117
(I1
S'computers & accessories'
p118
F0.9794600938967136
F0.9955062911923307
tp119
sS'telephones & communication'
p120
(I3
S'memory cards'
p121
F0.46099651365485184
F0.7932881676382543
tp122
sS'office & school supplies'
p123
(I3
S'printer ink & toner'
p124
F0.9049400595381768
F0.9790620137808402
tp125
sS'memory cards & readers'
p126
(I1
S'computers & accessories'
p127
F0.9727699530516432
F0.9098455598455598
tp128
sS'marine electronics'
p129
(I1
S'car & vehicle electronics'
p130
F0.7033398821218074
F0.8519553072625698
tp131
sS'computer accessories & peripherals'
p132
(I1
S'computers & accessories'
p133
F0.8958460646515928
F0.9612660043377877
tp134
sS'headphones'
p135
(I3
S'cables & interconnects'
p136
F0.9708063487802423
F0.914278801285818
tp137
sS'digital cameras'
p138
(I1
S'camera & photo'
p139
F0.9380288131717357
F0.9421014139444174
tp140
sS'microphones & live sound'
p141
(I2
S'cables & accessories'
p142
F0.927385216541843
F0.8932584269662921
tp143
sS'computer cards & components'
p144
(I1
S'computers & accessories'
p145
F0.9747992723623133
F0.9920850694165152
tp146
sS'home audio accessories'
p147
(I2
S'audio & video accessories'
p148
F0.974910394265233
F0.9604779411764706
tp149
sS'software'
p150
(I1
S'computers & accessories'
p151
F0.8129126925898753
F0.855595667870036
tp152
sa(dp153
S'ipad accessories'
p154
(I2
S'touch screen tablet accessories'
p155
F0.9187208527648234
F0.9550852066715011
tp156
sS'video graphics cards'
p157
(I2
S'computer components'
p158
F0.9342738057069574
F0.9752916952642416
tp159
sS'imaging video & design software'
p160
(I2
S'cables & accessories'
p161
F0.5348495964783566
F0.51440329218107
tp162
sS'all-in-one computers'
p163
(I2
S'data storage'
p164
F0.41812865497076024
F0.8951048951048951
tp165
sS'all monitors'
p166
(I2
S'monitors'
p167
F0.9016506189821183
F0.8592677345537757
tp168
sS'servers'
p169
(I2
S'computer components'
p170
F0.5258215962441315
F0.9681919642857143
tp171
sS'tablets'
p172
(I2
S'touch screen tablet accessories'
p173
F0.7639751552795031
F0.5423242467718795
tp174
sS'mice & keyboards'
p175
(I2
S'cables & accessories'
p176
F0.9810861317175378
F0.9864935064935065
tp177
sS'camera bags cases & straps'
p178
(I2
S'bags & cases'
p179
F0.7935943060498221
F0.0
tp180
sS'refurbished laptops'
p181
(I2
S'data storage'
p182
F0.7489694971145919
F0.9609246009906439
tp183
sS'racks mounts & accessories'
p184
(I3
S'cables & interconnects'
p185
F0.9348604151753758
F0.7817764165390505
tp186
sS'refurbished desktops'
p187
(I2
S'data storage'
p188
F0.6953331376577634
F0.6656817222456732
tp189
sS'pc laptops'
p190
(I2
S'data storage'
p191
F0.5082858622475401
F0.9500764136525726
tp192
sS'cables & connectors'
p193
(I3
S'cables & interconnects'
p194
F0.9890778205287328
F0.9940394026854059
tp195
sS'surge protectors & power management'
p196
(I3
S'cables & interconnects'
p197
F0.9024930747922437
F0.8176795580110497
tp198
sS'processors'
p199
(I2
S'computer components'
p200
F0.9912718204488778
F0.9987421383647799
tp201
sS'laptop accessories'
p202
(I2
S'laptop & netbook computer accessories'
p203
F0.8748154014082999
F0.9408915202818418
tp204
sS'motherboards'
p205
(I2
S'computer components'
p206
F0.9918397626112759
F0.9910246821241586
tp207
sS'surge protectors & power'
p208
(I2
S'cables & accessories'
p209
F0.9270125223613596
F0.9571593979158626
tp210
sS'bags cases & straps'
p211
(I2
S'bags & cases'
p212
F0.8317885341572262
F0.0
tp213
sS'fans & cooling kits'
p214
(I2
S'computer components'
p215
F0.7928159076330982
F0.9579288025889967
tp216
sS'routers'
p217
(I2
S'networking products'
p218
F0.8524350054924936
F0.9089347079037801
tp219
sS'usb & firewire cards'
p220
(I2
S'computer components'
p221
F0.661849710982659
F0.9224890829694323
tp222
sS'memory cards'
p223
(I2
S'cables & accessories'
p224
F0.9570724841660803
F0.9860294117647059
tp225
sS'usb flash drives'
p226
(I2
S'data storage'
p227
F0.9589228662711091
F0.9785816277962874
tp228
sS'monitor & screen accessories'
p229
(I3
S'cables & interconnects'
p230
F0.911288534043025
F0.9406181552689219
tp231
sS'computer memory'
p232
(I2
S'computer components'
p233
F0.5379116332947211
F0.8760228880822002
tp234
sS'e-reader accessories'
p235
(I2
S'touch screen tablet accessories'
p236
F0.8372881355932204
F0.9610323886639676
tp237
sS'all desktops'
p238
(I2
S'data storage'
p239
F0.5321554770318021
F0.5876494023904383
tp240
sS'hard drives'
p241
(I2
S'data storage'
p242
F0.8854684702605928
F0.9700084245998315
tp243
sS'microphones & accessories'
p244
(I3
S'cables & interconnects'
p245
F0.8590035818951481
F0.8851402577710387
tp246
sS'ethernet hubs & switches'
p247
(I2
S'networking products'
p248
F0.831060606060606
F0.9619416590701915
tp249
sS'computer power supplies'
p250
(I2
S'computer components'
p251
F0.8477737665463297
F0.9794180269694819
tp252
sS'dvd blu-ray drives'
p253
(I2
S'computer components'
p254
F0.7563091482649842
F0.9040667361835245
tp255
sS'filters & accessories'
p256
(I2
S'accessories'
p257
F0.9907651715039578
F0.0
tp258
sS'tablet accessories'
p259
(I2
S'touch screen tablet accessories'
p260
F0.8041200981346626
F0.9196571262530873
tp261
sS'computer cases & hard drive enclosures'
p262
(I2
S'computer components'
p263
F0.45602865101472345
F0.7303664921465969
tp264
sa(dp265
S'wireless mice'
p266
(I3
S'keyboard & mice accessories'
p267
F0.7234411085450346
F0.8260175578611333
tp268
sS'mouse & wrist pads'
p269
(I3
S'keyboard & mice accessories'
p270
F0.9567198177676538
F0.9896825396825397
tp271
sS'keyboards'
p272
(I3
S'keyboard & mice accessories'
p273
F0.940244305051172
F0.980688202247191
tp274
sS'laptop bags & cases'
p275
(I3
S'bags & cases'
p276
F0.9648833113166007
F0.0
tp277
sS'corded mice'
p278
(I3
S'keyboard & mice accessories'
p279
F0.8845789971617786
F0.9636363636363636
tp280
sS'laptop memory'
p281
(I3
S'memory'
p282
F0.9923463809315548
F0.0
tp283
sS'desktop memory'
p284
(I3
S'memory'
p285
F0.9869636624923014
F0.0
tp286
sS'secure digital'
p287
(I3
S'memory cards'
p288
F0.9714779602420052
F0.9653024911032029
tp289
sa(dp290
a(dp291
a.