(lp0
(dp1
S'grocery'
p2
(I0
S'grocery & gourmet food'
p3
F0.6132221560452651
F0.8374125874125874
tp4
sS'video games'
p5
(I0
S'sports & outdoors'
p6
F0.3131480713396931
tp7
sS'jewelry'
p8
(I0
S'jewelry'
p9
F0.789303826648225
F0.9480724299065421
tp10
sS'beauty'
p11
(I0
S'beauty'
p12
F0.8891477730979478
F0.9362023785527112
tp13
sS'cell phones'
p14
(I2
S'audio & video accessories'
p15
F0.9116491117748782
F0.9715468184169684
tp16
sS'patio & garden'
p17
(I0
S'patio lawn & garden'
p18
F0.4576048951048951
F0.789534725064811
tp19
sS'toys'
p20
(I1
S'hobbies'
p21
F0.38982683396113926
F0.5335418839068474
tp22
sS'home improvement'
p23
(I0
S'tools & home improvement'
p24
F0.6638346665703606
F0.8121591295477729
tp25
sS'apparel'
p26
(I0
S'clothing & accessories'
p27
F0.5383449147188882
F0.826331846984276
tp28
sS'auto & tires'
p29
(I0
S'automotive'
p30
F0.6935809446911586
F0.8929818726093464
tp31
sS'health'
p32
(I0
S'health & personal care'
p33
F0.6625541343539127
F0.8238200197613438
tp34
sS'pets'
p35
(I0
S'pet supplies'
p36
F0.6866620831900997
F0.848811013767209
tp37
sS'baby'
p38
(I0
S'baby products'
p39
F0.39188864890808733
F0.7330067360685855
tp40
sS'electronics'
p41
(I3
S'cables & interconnects'
p42
F0.6569544989132192
F0.6527944875861315
tp43
sa(dp44
S'automotive electrical'
p45
(I2
S'lighting & electrical'
p46
F0.6262057877813505
F0.5866495507060334
tp47
sS'hats & headwear'
p48
(I3
S'hats & caps'
p49
F0.9458823529411765
F0.8913764510779436
tp50
sS'window coverings'
p51
(I2
S'window treatments'
p52
F0.9854227405247813
F0.9911242603550295
tp53
sS'all bracelets'
p54
(I2
S'bangle'
p55
F0.4846909300982091
F0.822010329757648
tp56
sS'brooches & pins'
p57
(I1
S'novelty & more'
p58
F0.7282608695652174
F0.7134328358208956
tp59
sS'car seat covers'
p60
(I1
S'interior accessories'
p61
F0.6772983114446529
F0.5955678670360111
tp62
sS'cargo management system'
p63
(I2
S'decals & bumper stickers'
p64
F0.5978835978835979
F0.7699115044247787
tp65
sS'baby clothing'
p66
(I1
S'baby'
p67
F0.8162859980139027
F0.8114355231143552
tp68
sS'dinnerware'
p69
(I2
S'tabletop'
p70
F0.9681603773584906
F0.9707673568818515
tp71
sS'all fragrances'
p72
(I1
S'fragrance'
p73
F0.9149567367119901
F0.9415022966765739
tp74
sS'eyes'
p75
(I1
S'makeup'
p76
F0.9321663019693655
F0.9882629107981221
tp77
sS'jewelry storage'
p78
(I2
S'jewelry boxes & organizers'
p79
F0.9205816554809844
F0.9562575941676792
tp80
sS'face'
p81
(I2
S'face'
p82
F0.9760076775431862
F0.9636184857423795
tp83
sS'sofas loveseats & sectionals'
p84
(I2
S'living room furniture'
p85
F0.9943555973659455
F0.9938505203405865
tp86
sS'mens workwear shop'
p87
(I1
S'novelty & special use'
p88
F0.7744565217391305
F0.856140350877193
tp89
sS'gloves'
p90
(I2
S'accessories'
p91
F0.8651452282157677
F0.9424460431654677
tp92
sS'cufflinks'
p93
(I1
S'mens jewelry'
p94
F0.6797385620915033
F0.9011752136752137
tp95
sS'swimwear'
p96
(I2
S'swim'
p97
F0.9536679536679536
F0.9149797570850202
tp98
sS'all rings'
p99
(I3
S'diamond bands'
p100
F0.7860713095634788
F0.8938815882436061
tp101
sS'car lighting'
p102
(I2
S'lights & lighting accessories'
p103
F0.940677966101695
F0.954954954954955
tp104
sS'all earrings'
p105
(I1
S'earrings'
p106
F0.4929862842892768
tp107
sS'all pendants & necklaces'
p108
(I1
S'necklaces'
p109
F0.45710184090525247
tp110
sS'tops'
p111
(I2
S'tops & tees'
p112
F0.7685774946921444
F0.9475138121546961
tp113
sS'candy'
p114
(I1
S'candy & chocolate'
p115
F0.8736842105263158
F0.8714859437751004
tp116
sS'wallets money & key organizers'
p117
(I2
S'novelty'
p118
F0.9287833827893175
F0.9105431309904153
tp119
sS'lips'
p120
(I2
S'lips'
p121
F0.9515972894482091
F0.987792472024415
tp122
sS'sauces'
p123
(I1
S'pantry staples'
p124
F0.7532467532467533
F0.7442528735632183
tp125
sS'body cleansers'
p126
(I1
S'bath & body'
p127
F0.6863468634686347
F0.9229390681003584
tp128
sS'beauty tools & accessories'
p129
(I1
S'tools & accessories'
p130
F0.4898949070331447
F0.8564356435643564
tp131
sS'sleepwear & robes'
p132
(I2
S'sleep & lounge'
p133
F0.824
F0.8446601941747572
tp134
sa.