(lp0
(dp1
S'baby'
p2
(I0
S'baby products'
p3
F0.5666887856668879
F0.8266978922716628
tp4
sS'crafts & sewing'
p5
(I0
S'arts crafts & sewing'
p6
F0.6940959283443301
F0.7809683298034773
tp7
sS'health & beauty'
p8
(I0
S'beauty'
p9
F0.8354697811327921
F0.9420656343230572
tp10
sS'eziba'
p11
(I0
S'home & kitchen'
p12
F1.0
F0.9885245901639345
tp13
sS'home & garden'
p14
(I0
S'home & kitchen'
p15
F0.7757436962886014
F0.8882281211132551
tp16
sS'bedding & bath'
p17
(I0
S'home & kitchen'
p18
F0.9164783824148891
F0.9181848570951028
tp19
sS'o.biz'
p20
(I2
S'home decor accents'
p21
F0.9113395438483778
F0.8882622488544237
tp22
sS'luggage & bags'
p23
(I1
S'luggage & bags'
p24
F0.9322890849608407
F0.9796894938324118
tp25
sS'pet supplies'
p26
(I0
S'pet supplies'
p27
F0.8250470303681806
F0.9218241042345277
tp28
sS'worldstock fair trade'
p29
(I0
S'jewelry'
p30
F0.4618959661562295
F0.8970265737874097
tp31
sS'jewelry & watches'
p32
(I0
S'jewelry'
p33
F0.8544511341435499
F0.9874119600397484
tp34
sS'clothing & shoes'
p35
(I1
S'women'
p36
F0.6739629084486312
F0.8967927696234732
tp37
sS'sales & promotions'
p38
(I0
S'home & kitchen'
p39
F0.8349546044098574
F0.9102912621359224
tp40
sS'main street revolution'
p41
(I0
S'jewelry'
p42
F0.4378701729447998
F0.810631678614906
tp43
sS'sports & toys'
p44
(I1
S'fan shop'
p45
F0.6010117054812932
F0.8670814019679597
tp46
sS'electronics'
p47
(I0
S'electronics'
p48
F0.6913152607045484
F0.9148203241211932
tp49
sS'gifts & flowers'
p50
(I0
S'grocery & gourmet food'
p51
F0.3599774838164931
F0.8146989835809226
tp52
sS'office supplies'
p53
(I1
S'computers & accessories'
p54
F0.8390435600819173
F0.9257866613892737
tp55
sa(dp56
S'fitness & nutrition'
p57
(I1
S'skin care'
p58
F0.6643109540636042
F0.6400709219858156
tp59
sS'janitorial & cleaning'
p60
(I2
S'touch screen tablet accessories'
p61
F0.40186915887850466
F0.5658914728682171
tp62
sS'garden & patio'
p63
(I2
S'home decor accents'
p64
F0.7558554577285244
F0.7898808185293457
tp65
sS'accessories'
p66
(I2
S'accessories'
p67
F0.9281366249577274
F0.9035343414100929
tp68
sS'outdoors'
p69
(I2
S'home & garden'
p70
F0.44734819369715606
F0.5738831615120275
tp71
sS'kitchen & dining'
p72
(I1
S'kitchen & dining'
p73
F0.8923158033478318
F0.9470211718365338
tp74
sS'gift baskets'
p75
(I1
S'snack foods'
p76
F0.5440044004400441
F0.7431749241658241
tp77
sS'housewares'
p78
(I2
S'storage & organization'
p79
F0.6521565495207667
F0.7048377219840783
tp80
sS'cameras & photo'
p81
(I1
S'camera & photo'
p82
F0.8038599206733095
F0.953366628557675
tp83
sS'tools'
p84
(I1
S'kitchen & dining'
p85
F0.47879359095193214
F0.5334645669291339
tp86
sS'blankets & throws'
p87
(I1
S'bedding'
p88
F0.9192118226600985
F0.9217577706323687
tp89
sS'collectibles'
p90
(I2
S'home & garden'
p91
F0.5181323432175372
F0.7964071856287425
tp92
sS'fashion bedding'
p93
(I1
S'bedding'
p94
F0.9948030473040808
F0.9942416147224695
tp95
sS'printers & scanners'
p96
(I1
S'computers & accessories'
p97
F0.9291473247007085
F0.9763344727846437
tp98
sS'art gallery'
p99
(I1
S'artwork'
p100
F0.8469512641610092
F0.968912877010103
tp101
sS'home decor'
p102
(I1
S'home decor'
p103
F0.8950126319084243
F0.9648532272518634
tp104
sS'bath & towels'
p105
(I1
S'bath'
p106
F0.9318065506653019
F0.9309350542358918
tp107
sS'monitors & displays'
p108
(I1
S'computers & accessories'
p109
F0.7150027886224205
F0.9399375975039002
tp110
sS'audio & video'
p111
(I3
S'cables & interconnects'
p112
F0.7732326050564451
F0.7743976906850227
tp113
sS'down bedding'
p114
(I1
S'bedding'
p115
F0.9943422913719944
F0.9890943575154102
tp116
sS'office electronics'
p117
(I2
S'cables & accessories'
p118
F0.9976463942760309
F0.9909408323110315
tp119
sS'sunglasses'
p120
(I3
S'sunglasses & eyewear accessories'
p121
F0.9972611315439392
F0.9948210922787194
tp122
sS'mattress pads & toppers'
p123
(I1
S'bedding'
p124
F0.9525083612040134
F0.9669943820224719
tp125
sS'sewing & needlework'
p126
(I1
S'sewing'
p127
F0.46704225352112677
F0.7997587454764777
tp128
sS'beauty products'
p129
(I1
S'fragrance'
p130
F0.5258639021796917
F0.9345397563564677
tp131
sS'golf equipment'
p132
(I2
S'sports equipment'
p133
F0.6784132486038899
F0.7604314504683508
tp134
sS'mens sport clothing'
p135
(I2
S'clothing'
p136
F0.8922040423484119
F0.9309600862998921
tp137
sS'designer store'
p138
(I2
S'accessories'
p139
F0.7368119266055045
F0.6614785992217899
tp140
sS'furniture'
p141
(I1
S'furniture'
p142
F0.917927290078797
F0.9693721286370597
tp143
sS'memory foam'
p144
(I1
S'bedding'
p145
F0.7614804660726525
F0.8820882088208821
tp146
sS'scrapbooking'
p147
(I1
S'scrapbooking'
p148
F0.7517527227831915
F0.9251569006979882
tp149
sS'luggage'
p150
(I2
S'luggage'
p151
F0.9660084169634185
F0.0
tp152
sS'womens sport clothing'
p153
(I2
S'clothing'
p154
F0.9582697201017811
F0.9702602230483272
tp155
sS'sale'
p156
(I2
S'living room furniture'
p157
F0.4380674448767834
F0.6210214655810511
tp158
sS'nursery decor'
p159
(I1
S'nursery'
p160
F0.9972789115646259
F0.0
tp161
sS'jewelry & watch boxes'
p162
(I1
S'candy & chocolate'
p163
F0.5394581861012956
F0.5807860262008734
tp164
sS'bedding accessories'
p165
(I1
S'bedding'
p166
F0.9966273187183811
F0.9983079526226735
tp167
sS'kids & teen bedding'
p168
(I1
S'bedding'
p169
F0.9437037037037037
F0.9774986917844061
tp170
sS'computers hardware & software'
p171
(I1
S'computers & accessories'
p172
F0.8498497329450786
F0.9564647787967349
tp173
sS'crafts'
p174
(I1
S'beading & jewelry-making'
p175
F0.6449371277299801
F0.8476141611082606
tp176
sS'sheets'
p177
(I1
S'bedding'
p178
F0.9925942060553257
F0.9914417379855168
tp179
sS'sheets & pillowcases'
p180
(I1
S'bedding'
p181
F0.9934509348262385
F0.9940457203615098
tp182
sS'pillows & protectors'
p183
(I1
S'bedding'
p184
F0.9493087557603687
F0.93042071197411
tp185
sa(dp186
S'living room furniture'
p187
(I2
S'living room furniture'
p188
F0.7226473245124608
F0.9207323798669069
tp189
sS'picnic'
p190
(I2
S'storage & organization'
p191
F0.6810751907010534
F0.6890666666666667
tp192
sS'flatware'
p193
(I2
S'tabletop'
p194
F0.9881170018281535
F0.9685476410730804
tp195
sS'commercial it hardware'
p196
(I2
S'networking products'
p197
F0.42969004893964113
F0.9145785876993167
tp198
sS'hats'
p199
(I3
S'hats & caps'
p200
F0.9794573643410853
F0.965571824297586
tp201
sS'bed-in-a-bag'
p202
(I2
S'sheets & pillowcases'
p203
F0.8506616257088847
F0.9755555555555555
tp204
sS'computer accessories'
p205
(I3
S'cables & interconnects'
p206
F0.8847127815540451
F0.9282665461484383
tp207
sS'home office furniture'
p208
(I2
S'living room furniture'
p209
F0.4112699747687132
F0.5940695296523517
tp210
sS'lcd monitors'
p211
(I2
S'monitors'
p212
F0.9148020654044751
F0.8510504860457824
tp213
sS'eyeglasses'
p214
(I3
S'sunglasses & eyewear accessories'
p215
F0.9987974199190992
F0.9938704028021016
tp216
sS'keyboards & mice'
p217
(I2
S'cables & accessories'
p218
F0.8075062552126773
F0.9624044618880396
tp219
sS'bedskirts'
p220
(I2
S'sheets & pillowcases'
p221
F0.6593591905564924
F0.7544757033248082
tp222
sS'pillows'
p223
(I2
S'decorative pillows inserts & covers'
p224
F0.706605222734255
F0.8695652173913043
tp225
sS'kids furniture'
p226
(I2
S'other furniture'
p227
F0.44564898915909756
F0.8961209730440499
tp228
sS'kitchen storage'
p229
(I2
S'storage & organization'
p230
F0.801330008312552
F0.8506224066390041
tp231
sS'area rugs'
p232
(I2
S'area rugs & pads'
p233
F0.9961037884440023
F0.998335552596538
tp234
sS'computer components'
p235
(I3
S'cables & interconnects'
p236
F0.9355582688916022
F0.8758700696055685
tp237
sS'printers & supplies'
p238
(I3
S'printer ink & toner'
p239
F0.9962342308416494
F0.9991494991494991
tp240
sS'bakeware'
p241
(I2
S'bakeware'
p242
F0.6629303442754203
F0.857487922705314
tp243
sS'optical drives'
p244
(I2
S'computer components'
p245
F0.9221238938053097
F0.9558541266794626
tp246
sS'appliances'
p247
(I2
S'tabletop'
p248
F0.37374675083549946
F0.6443119721808246
tp249
sS'designer sunglasses'
p250
(I3
S'sunglasses & eyewear accessories'
p251
F0.9968354430379747
F0.9978174603174603
tp252
sS'down alternatives'
p253
(I2
S'sheets & pillowcases'
p254
F0.7521793275217933
F0.8509933774834437
tp255
sS'glasses & barware'
p256
(I2
S'glassware & drinkware'
p257
F0.6344632768361582
F0.788364499851588
tp258
sS'down'
p259
(I2
S'sheets & pillowcases'
p260
F0.5682852807283764
F0.8277703604806409
tp261
sS'linens & decor'
p262
(I2
S'kitchen & table linens'
p263
F0.7737167428110723
F0.8865925668634943
tp264
sS'photo accessories'
p265
(I2
S'accessories'
p266
F0.8176169590643275
F0.0
tp267
sS'dining room & bar furniture'
p268
(I2
S'dining room furniture'
p269
F0.6781102557735287
F0.9315206445115811
tp270
sS'pillowcases'
p271
(I2
S'sheets & pillowcases'
p272
F0.8262781748213304
F0.9600798403193613
tp273
sS'comforter sets'
p274
(I2
S'sheets & pillowcases'
p275
F0.963625782045686
F0.9713120942171222
tp276
sS'printers'
p277
(I2
S'cables & accessories'
p278
F0.8869908015768725
F0.8203703703703704
tp279
sS'computer hardware'
p280
(I2
S'computer components'
p281
F0.8361884368308351
F0.9283955481138579
tp282
sS'serveware'
p283
(I2
S'tabletop'
p284
F0.9313228585909782
F0.9453061224489796
tp285
sS'slipcovers'
p286
(I2
S'home decor accents'
p287
F0.7783759533423059
F0.6755043227665706
tp288
sS'memory foam mattress toppers'
p289
(I2
S'decorative pillows inserts & covers'
p290
F0.7278958190541467
F0.6826741996233522
tp291
sS'mattress pads'
p292
(I2
S'sheets & pillowcases'
p293
F0.5933110367892976
F0.7711386696730552
tp294
sS'monitor accessories'
p295
(I3
S'cables & interconnects'
p296
F0.8917525773195877
F0.8959537572254336
tp297
sS'pdas'
p298
(I2
S'pdas handhelds & accessories'
p299
F0.3870056497175141
F0.6751824817518248
tp300
sS'lighting & ceiling fans'
p301
(I2
S'candles & holders'
p302
F0.5878477994918285
F0.7611526147278549
tp303
sS'cooking essentials'
p304
(I2
S'kitchen utensils & gadgets'
p305
F0.6781017724413951
F0.8819561551433389
tp306
sS'collectibles'
p307
(I2
S'home decor accents'
p308
F0.9754204398447607
F0.9774535809018567
tp309
sS'window treatments'
p310
(I2
S'window treatments'
p311
F0.9744756345322918
F0.9940390544707092
tp312
sS'e-book readers'
p313
(I2
S'touch screen tablet accessories'
p314
F0.9522395446671615
F0.9589397089397089
tp315
sS'floppy drives'
p316
(I3
S'cables & interconnects'
p317
F0.684660961158657
F0.6913461538461538
tp318
sS'duvet covers'
p319
(I2
S'duvet covers & sets'
p320
F0.9918938835666913
F0.9980188211986132
tp321
sS'wallets'
p322
(I3
S'wallets card cases & money organizers'
p323
F0.9802727008993327
F0.9641905889316366
tp324
sS'kids bedding'
p325
(I2
S'sheets & pillowcases'
p326
F0.7520987654320987
F0.8837820091923835
tp327
sS'sheets'
p328
(I2
S'sheets & pillowcases'
p329
F0.9973037012827846
F0.9995903653940685
tp330
sS'dinnerware'
p331
(I2
S'tabletop'
p332
F0.9641755982968727
F0.9643672910004568
tp333
sS'bathroom furniture'
p334
(I2
S'bedroom furniture'
p335
F0.9736070381231672
F0.9939759036144579
tp336
sS'networking'
p337
(I2
S'networking products'
p338
F0.7032352941176471
F0.8548724383103304
tp339
sS'quilts & bedspreads'
p340
(I2
S'sheets & pillowcases'
p341
F0.8134938664243526
F0.891371125383971
tp342
sS'scarves & wraps'
p343
(I3
S'scarves & wraps'
p344
F0.9689722042663219
F0.9693128752501667
tp345
sS'printer accessories'
p346
(I2
S'cables & accessories'
p347
F0.9715681919147046
F0.964106081390032
tp348
sS'decorative accessories'
p349
(I2
S'home decor accents'
p350
F0.7484088944763102
F0.8720209973753281
tp351
sS'hard drives'
p352
(I2
S'data storage'
p353
F0.7284001090215317
F0.9678203928905519
tp354
sS'storage & blank media'
p355
(I2
S'data storage'
p356
F0.5685079614704148
F0.9640387275242047
tp357
sS'computers'
p358
(I2
S'laptop & netbook computer accessories'
p359
F0.4378326076439284
F0.8117127071823205
tp360
sS'cutlery'
p361
(I2
S'tabletop'
p362
F0.6429192006950478
F0.7608108108108108
tp363
sS'designer accessories'
p364
(I3
S'wallets card cases & money organizers'
p365
F0.5830815709969789
F0.9398963730569948
tp366
sS'blankets'
p367
(I2
S'sheets & pillowcases'
p368
F0.5076173065204144
F0.7130852340936374
tp369
sS'bedroom furniture'
p370
(I2
S'bedroom furniture'
p371
F0.973469960696238
F0.9929343907714492
tp372
sS'throws'
p373
(I2
S'decorative pillows inserts & covers'
p374
F0.9813628421665695
F0.9866468842729971
tp375
sS'software'
p376
(I2
S'cables & accessories'
p377
F0.49209586945436
F0.5041450777202072
tp378
sa(dp379
S'photo filters'
p380
(I3
S'digital camera accessories'
p381
F0.7989778534923339
F0.5671641791044776
tp382
sS'camera bags & cases'
p383
(I3
S'digital camera accessories'
p384
F0.7386203660253402
F0.7268106734434562
tp385
sS'keyboard mice sets'
p386
(I3
S'keyboard & mice accessories'
p387
F0.765625
F0.9863945578231292
tp388
sS'other accessories'
p389
(I3
S'printer ink & toner'
p390
F0.5846841811067636
F0.8919694072657743
tp391
sS'printer paper'
p392
(I3
S'printer ink & toner'
p393
F0.7040905134899913
F0.6996291718170581
tp394
sS'all-in-one printers'
p395
(I3
S'printer ink & toner'
p396
F0.8636788048552755
F0.7827027027027027
tp397
sS'keyboards & keypads'
p398
(I3
S'keyboard & mice accessories'
p399
F0.8486967577876668
F0.9865168539325843
tp400
sS'toner'
p401
(I3
S'printer ink & toner'
p402
F0.9981378026070763
F1.0
tp403
sS'pc memory'
p404
(I3
S'memory'
p405
F0.9751861042183623
F0.0
tp406
sS'camera batteries & chargers'
p407
(I3
S'batteries & chargers'
p408
F0.9058784676354029
F0.974845060153117
tp409
sS'mice & trackballs'
p410
(I3
S'keyboard & mice accessories'
p411
F0.7198660714285714
F0.8170542635658915
tp412
sS'lenses & flashes'
p413
(I3
S'digital camera accessories'
p414
F0.8907392363931763
F0.7756497948016415
tp415
sS'ink cartridges'
p416
(I3
S'printer ink & toner'
p417
F0.9971223021582734
F1.0
tp418
sS'inkjet printers'
p419
(I3
S'printer ink & toner'
p420
F0.912621359223301
F0.9601063829787234
tp421
sS'kvm switches'
p422
(I3
S'cables & interconnects'
p423
F0.957685664939551
F0.9585211902614968
tp424
sa(dp425
a(dp426
a.