(lp0
(dp1
S'grocery'
p2
(I0
S'grocery & gourmet food'
p3
F0.610731265564863
F0.8409697508896797
tp4
sS'jewelry'
p5
(I0
S'jewelry'
p6
F0.7902967190220859
F0.9470417557485056
tp7
sS'beauty'
p8
(I0
S'beauty'
p9
F0.88974682479603
F0.9360382673800836
tp10
sS'cell phones'
p11
(I2
S'audio & video accessories'
p12
F0.9128623502864086
F0.969892882043481
tp13
sS'patio & garden'
p14
(I0
S'patio lawn & garden'
p15
F0.4591020873676832
F0.7916364765552221
tp16
sS'toys'
p17
(I1
S'hobbies'
p18
F0.39023407598404575
F0.5298110675201322
tp19
sS'home improvement'
p20
(I0
S'tools & home improvement'
p21
F0.6638562416830044
F0.8130024074754152
tp22
sS'apparel'
p23
(I0
S'clothing & accessories'
p24
F0.5354387482875478
F0.8274082054044348
tp25
sS'auto & tires'
p26
(I0
S'automotive'
p27
F0.6925645663644828
F0.8930254841052745
tp28
sS'health'
p29
(I0
S'health & personal care'
p30
F0.6601578173064063
F0.8250173651308174
tp31
sS'pets'
p32
(I0
S'pet supplies'
p33
F0.6887879175732753
F0.8463253739663662
tp34
sS'party & occasions'
p35
(I0
S'home & kitchen'
p36
F0.43464960839791694
F0.8459593577237307
tp37
sS'baby'
p38
(I0
S'baby products'
p39
F0.40090497737556563
F0.7128668171557562
tp40
sS'home'
p41
(I0
S'home & kitchen'
p42
F0.6576926595458615
F0.869813169791041
tp43
sS'electronics'
p44
(I3
S'cables & interconnects'
p45
F0.6571423767570113
F0.6493467948685147
tp46
sS'clothing'
p47
(I1
S'luggage & bags'
p48
F0.6006898381533563
F0.9394876325088339
tp49
sS'sports & outdoors'
p50
(I1
S'fan shop'
p51
F0.7472478945210232
F0.9346077308086594
tp52
sa(dp53
S'kids storage'
p54
(I2
S'other furniture'
p55
F0.7721602101116218
F0.7704081632653061
tp56
sS'giftwrap & supplies'
p57
(I2
S'home decor accents'
p58
F0.9870292887029288
F0.8859686307757524
tp59
sS'car battery chargers & accessories'
p60
(I1
S'replacement parts'
p61
F0.8481012658227848
F0.8933901918976546
tp62
sS'hooks'
p63
(I2
S'cabinet hardware'
p64
F0.6385333794534763
F0.8104008667388949
tp65
sS'ladders'
p66
(I1
S'building supplies'
p67
F0.9110459433040078
F0.9066523605150214
tp68
sS'indoor fireplaces & stoves'
p69
(I1
S'building supplies'
p70
F0.6090248802348941
F0.7706165947729002
tp71
sS'ceiling fixtures'
p72
(I1
S'home decor'
p73
F0.8664609960334949
F0.7782031375488568
tp74
sS'briefcases'
p75
(I1
S'luggage & bags'
p76
F0.9312169312169312
F0.9640151515151515
tp77
sS'blood pressure monitors'
p78
(I1
S'medical supplies & equipment'
p79
F0.8993788819875776
F0.9765193370165746
tp80
sS'home security'
p81
(I1
S'safety & security'
p82
F0.3916083916083916
F0.7551020408163265
tp83
sS'massage equipment'
p84
(I1
S'skin care'
p85
F0.7891050583657587
F0.8037475345167653
tp86
sS'shower curtains'
p87
(I1
S'bath'
p88
F0.976159514521023
F0.9955595026642984
tp89
sS'chisels & punches'
p90
(I1
S'power & hand tools'
p91
F0.9305184393372528
F0.9167145318782309
tp92
sS'interior lamps'
p93
(I1
S'home decor'
p94
F0.8756594467081278
F0.7702782131661442
tp95
sS'toilet lids & seats'
p96
(I1
S'kitchen & bath fixtures'
p97
F0.9123184507799892
F0.9245283018867925
tp98
sS'bed pillows'
p99
(I2
S'decorative pillows inserts & covers'
p100
F0.8517679057116954
F0.951037786056413
tp101
sS'halloween wigs'
p102
(I2
S'home decor accents'
p103
F0.9942052980132451
F0.9675270607826811
tp104
sS'automotive electrical'
p105
(I2
S'lighting & electrical'
p106
F0.6379769299023957
F0.602688919796013
tp107
sS'life vests'
p108
(I2
S'clothing'
p109
F0.7958015267175572
F0.7434052757793765
tp110
sS'minerals'
p111
(I1
S'vitamins & dietary supplements'
p112
F0.7707900207900208
F0.9186334007642166
tp113
sS'foot care'
p114
(I1
S'health care'
p115
F0.6494464944649446
F0.7869318181818182
tp116
sS'braces & supports'
p117
(I1
S'health care'
p118
F0.5081673306772908
F0.7781262250098001
tp119
sS'hats & headwear'
p120
(I3
S'hats & caps'
p121
F0.9403487304986234
F0.907612231620039
tp122
sS'patio furniture sets'
p123
(I1
S'patio furniture & accessories'
p124
F0.9807130333138515
F0.9900178784266984
tp125
sS'bedroom sets'
p126
(I2
S'bedroom furniture'
p127
F0.7132352941176471
F0.9398625429553265
tp128
sS'trash cans & recycle bins'
p129
(I1
S'storage & organization'
p130
F0.7667412985955628
F0.8723121847624105
tp131
sS'chains ropes & tiedowns'
p132
(I2
S'door hardware & locks'
p133
F0.45733113673805603
F0.6044668587896254
tp134
sS'digestion & nausea'
p135
(I1
S'vitamins & dietary supplements'
p136
F0.566813509544787
F0.8290155440414507
tp137
sS'fluids & lubricants'
p138
(I1
S'replacement parts'
p139
F0.48588957055214727
F0.5227272727272727
tp140
sS'cookies'
p141
(I1
S'snack foods'
p142
F0.8647764449291166
F0.9155107187894073
tp143
sS'flashlights'
p144
(I1
S'power & hand tools'
p145
F0.8679767506227511
F0.9269770408163265
tp146
sS'tea'
p147
(I1
S'beverages'
p148
F0.985781990521327
F0.9895833333333334
tp149
sS'hot & cold therapy'
p150
(I1
S'health care'
p151
F0.7700228832951945
F0.8202080237741456
tp152
sS'oral accessories'
p153
(I1
S'personal care'
p154
F0.7872996300863132
F0.9028974158183242
tp155
sS'paints & primers'
p156
(I1
S'painting supplies & wall treatments'
p157
F0.8712811171827566
F0.8097560975609757
tp158
sS'griddles & skillets'
p159
(I1
S'kitchen & dining'
p160
F0.8552097428958051
F0.865506329113924
tp161
sS'wall fixtures'
p162
(I1
S'home decor'
p163
F0.8652079612145955
F0.9415321094153211
tp164
sS'atv accessories'
p165
(I1
S'motorcycle & powersports'
p166
F0.7969625410936704
F0.8802870090634441
tp167
sS'auto paint & body'
p168
(I2
S'paints & primers'
p169
F0.7670753064798599
F0.8812785388127854
tp170
sS'paintings'
p171
(I2
S'home decor accents'
p172
F0.8957871396895787
F0.8415841584158416
tp173
sS'gun cases & bags'
p174
(I2
S'sports souvenirs'
p175
F0.3593265396544085
F0.5684340320591862
tp176
sS'water pumps'
p177
(I1
S'rough plumbing'
p178
F0.82063305978898
F0.8428571428571429
tp179
sS'plumbing parts & repair'
p180
(I1
S'rough plumbing'
p181
F0.5330422872795754
F0.8360366147422514
tp182
sS'moisturizers'
p183
(I1
S'skin care'
p184
F0.9520153550863724
F0.9586693548387096
tp185
sS'decorative magnets stickers & window clings'
p186
(I2
S'kitchen utensils & gadgets'
p187
F0.7880032867707477
F0.9280500521376434
tp188
sS'trading cards'
p189
(I2
S'sports souvenirs'
p190
F0.9622047244094488
F0.9214402618657938
tp191
sS'tv stands'
p192
(I1
S'furniture'
p193
F0.9753405354626585
F0.9850710329882013
tp194
sS'curtain rods & holdbacks'
p195
(I1
S'home decor'
p196
F0.922316384180791
F0.9241960183767228
tp197
sS'bar & wine accessories'
p198
(I1
S'kitchen & dining'
p199
F0.8944297082228116
F0.9306049822064056
tp200
sS'indoor tubs & whirlpools'
p201
(I1
S'kitchen & bath fixtures'
p202
F0.9494674263066634
F0.9947821549699974
tp203
sS'gardening tools'
p204
(I1
S'gardening'
p205
F0.8156028368794326
F0.7736413043478261
tp206
sS'window coverings'
p207
(I1
S'home decor'
p208
F0.9844306049822064
F0.9636240397650249
tp209
sS'ceramics & pottery'
p210
(I2
S'home decor accents'
p211
F0.9614197530864198
F0.9446227929373997
tp212
sS'pressure washers'
p213
(I1
S'power & hand tools'
p214
F0.4010152284263959
F0.5210970464135021
tp215
sS'all bracelets'
p216
(I2
S'bangle'
p217
F0.4892882818116463
F0.8307375844842786
tp218
sS'body repair'
p219
(I1
S'replacement parts'
p220
F0.4295942720763723
F0.6898148148148148
tp221
sS'supplements'
p222
(I1
S'vitamins & dietary supplements'
p223
F0.6044568245125348
F0.8540706605222734
tp224
sS'headboards'
p225
(I2
S'bedroom furniture'
p226
F0.9880273660205245
F0.9878822850548182
tp227
sS'framed wall art'
p228
(I1
S'artwork'
p229
F0.6957301758162899
F0.9092315626611656
tp230
sS'cutting tools'
p231
(I1
S'power & hand tools'
p232
F0.8892114175133043
F0.8601741022850925
tp233
sS'prints'
p234
(I1
S'artwork'
p235
F0.5765698914757443
F0.9305019305019305
tp236
sS'office chairs'
p237
(I1
S'furniture'
p238
F0.9984681372549019
F0.9978521018717398
tp239
sS'scales'
p240
(I1
S'health care'
p241
F0.6832229580573952
F0.7027463651050081
tp242
sS'kids rugs'
p243
(I2
S'area rugs & pads'
p244
F0.9975379565038982
F0.9979432332373509
tp245
sS'baking & pastry tools'
p246
(I1
S'kitchen & dining'
p247
F0.8111171073934161
F0.9108449767132402
tp248
sS'vinyl flooring'
p249
(I1
S'building supplies'
p250
F0.9857868020304569
F0.9629248197734295
tp251
sS'portable saws'
p252
(I1
S'power & hand tools'
p253
F0.9574759945130316
F0.940305635148042
tp254
sS'bath sinks'
p255
(I1
S'kitchen & bath fixtures'
p256
F0.9972041006523765
F0.9950934579439252
tp257
sS'all activewear'
p258
(I2
S'active'
p259
F0.5455650060753341
F0.7483296213808464
tp260
sS'outdoor power equipment'
p261
(I1
S'mowers & outdoor power tools'
p262
F0.5911401597676107
F0.8267813267813268
tp263
sS'handbags'
p264
(I1
S'luggage & bags'
p265
F0.5971621771422237
F0.9010581028401707
tp266
sS'lockers'
p267
(I2
S'home decor accents'
p268
F0.6653084982537835
F0.6062992125984252
tp269
sS'watering'
p270
(I1
S'gardening'
p271
F0.8320436959490214
F0.824398249452954
tp272
sS'removal tools'
p273
(I1
S'power & hand tools'
p274
F0.9366993217784476
F0.9678197908286403
tp275
sS'refrigerators and freezers'
p276
(I1
S'kitchen & dining'
p277
F0.8050586057988895
F0.8544061302681992
tp278
sS'conditioners'
p279
(I1
S'hair care'
p280
F0.9599465954606141
F0.9916550764951322
tp281
sS'gardening accessories'
p282
(I1
S'gardening'
p283
F0.8637873754152824
F0.8884615384615384
tp284
sS'hand saws'
p285
(I1
S'power & hand tools'
p286
F0.9601542416452442
F0.9665327978580991
tp287
sS'laundry organization'
p288
(I1
S'storage & organization'
p289
F0.5623287671232877
F0.756394640682095
tp290
sS'kids desks & chairs'
p291
(I1
S'furniture'
p292
F0.9048507462686567
F0.9639175257731959
tp293
sS'shower & tub modules'
p294
(I1
S'kitchen & bath fixtures'
p295
F0.9461538461538461
F0.9742547425474255
tp296
sS'plant stands & telephone tables'
p297
(I2
S'home decor accents'
p298
F0.9966722129783694
F0.9849749582637729
tp299
sS'crackers'
p300
(I1
S'snack foods'
p301
F0.9125475285171103
F0.9027777777777778
tp302
sS'outdoor lighting'
p303
(I1
S'outdoor decor'
p304
F0.8691746209994385
F0.8983942414174972
tp305
sS'furniture fan shop'
p306
(I2
S'sports souvenirs'
p307
F0.5253947930004268
F0.9524776604386678
tp308
sS'barstools & counter stools'
p309
(I1
S'furniture'
p310
F0.9978773321416602
F0.9955217196596506
tp311
sS'mirrors'
p312
(I2
S'home decor accents'
p313
F0.9645558189411898
F0.9426565242832066
tp314
sS'wreaths & garland'
p315
(I1
S'seasonal decor'
p316
F0.7149643705463183
F0.9546511627906977
tp317
sS'trailer hitches & towing equipment'
p318
(I1
S'exterior accessories'
p319
F0.6279540850776503
F0.9010752688172043
tp320
sS'scrapbooking & paper crafts'
p321
(I2
S'home decor accents'
p322
F0.9649912069036031
F0.9255774528501801
tp323
sS'lighting fan shop'
p324
(I2
S'home & garden'
p325
F0.9209948792977323
F0.8872120730738682
tp326
sS'food storage'
p327
(I1
S'kitchen & dining'
p328
F0.870149504451537
F0.9123552123552123
tp329
sS'shelving'
p330
(I2
S'other furniture'
p331
F0.8539049699617696
F0.935081547809402
tp332
sS'room dividers'
p333
(I1
S'furniture'
p334
F0.9311939080772369
F0.9582359813084113
tp335
sS'wind chimes & flags'
p336
(I1
S'outdoor decor'
p337
F0.9551189245087901
F0.9664356864443482
tp338
sS'brooches & pins'
p339
(I1
S'novelty & more'
p340
F0.7297721916732128
F0.7179763186221744
tp341
sS'indoor holiday decor'
p342
(I2
S'home decor accents'
p343
F0.9396491837443557
F0.9663617040938915
tp344
sS'fertilizer & soil'
p345
(I1
S'gardening'
p346
F0.9551066217732884
F0.9412455934195064
tp347
sS'bath accessories'
p348
(I1
S'skin care'
p349
F0.4179936305732484
F0.7695238095238095
tp350
sS'decorative accents'
p351
(I2
S'home decor accents'
p352
F0.9854499223054104
F0.9779720948012233
tp353
sS'vacuums and floor care'
p354
(I2
S'storage & organization'
p355
F0.6694864048338368
F0.8402527075812274
tp356
sS'herbals'
p357
(I1
S'vitamins & dietary supplements'
p358
F0.5383631713554987
F0.9061757719714965
tp359
sS'spark plugs'
p360
(I1
S'replacement parts'
p361
F0.9550930996714129
F0.9701834862385321
tp362
sS'car seat covers'
p363
(I2
S'seat covers & accessories'
p364
F0.665031534688157
F0.5047418335089568
tp365
sS'vases'
p366
(I2
S'home decor accents'
p367
F0.9865853658536585
F0.9890811701689328
tp368
sS'toasters & ovens'
p369
(I1
S'kitchen & dining'
p370
F0.9779310344827586
F0.9802538787023978
tp371
sS'cargo management system'
p372
(I2
S'decals & bumper stickers'
p373
F0.6202651515151515
F0.7587786259541984
tp374
sS'womens halloween costumes'
p375
(I2
S'home decor accents'
p376
F0.9960886571056062
F0.9685863874345549
tp377
sS'oil filters'
p378
(I1
S'replacement parts'
p379
F0.5479041916167665
F0.8688524590163934
tp380
sS'indoor halloween decor'
p381
(I2
S'home decor accents'
p382
F0.8655737704918033
F0.9223484848484849
tp383
sS'garden statues & accents'
p384
(I1
S'outdoor decor'
p385
F0.6891776995020041
F0.8831512160733169
tp386
sS'jointers & planers'
p387
(I1
S'power & hand tools'
p388
F0.6014492753623188
F0.8141135972461274
tp389
sS'deodorants & antiperspirant'
p390
(I1
S'personal care'
p391
F0.9584109248913718
F0.9766839378238342
tp392
sS'fire safety'
p393
(I1
S'safety & security'
p394
F0.6412478336221837
F0.7837837837837838
tp395
sS'bird baths & feeders'
p396
(I1
S'gardening'
p397
F0.6826202029113365
F0.7033925686591276
tp398
sS'pans'
p399
(I1
S'kitchen & dining'
p400
F0.9907945736434108
F0.9755501222493888
tp401
sS'hardwood & laminate flooring'
p402
(I1
S'building supplies'
p403
F0.9777000437254044
F0.9445438282647585
tp404
sS'safety equipment & gear'
p405
(I1
S'safety & security'
p406
F0.7094150766343447
F0.8514109347442681
tp407
sS'braces & straps'
p408
(I2
S'door hardware & locks'
p409
F0.6979742173112339
F0.7783641160949868
tp410
sS'baby clothing'
p411
(I1
S'baby'
p412
F0.81232822928936
F0.8018366360560657
tp413
sS'hammocks & swings'
p414
(I1
S'patio furniture & accessories'
p415
F0.9728476821192052
F0.9823008849557522
tp416
sS'shower bases doors & walls'
p417
(I1
S'kitchen & bath fixtures'
p418
F0.9460869565217391
F0.9797794117647058
tp419
sS'massagers'
p420
(I1
S'skin care'
p421
F0.4806800618238022
F0.6109324758842444
tp422
sS'giftwrap'
p423
(I2
S'home decor accents'
p424
F0.9894046417759839
F0.8758286588475268
tp425
sS'kitchen & dining chairs'
p426
(I1
S'furniture'
p427
F0.995155580398733
F0.9971915371653248
tp428
sS'accessories fan shop'
p429
(I2
S'clothing accessories'
p430
F0.36400462962962965
F0.8513513513513513
tp431
sS'decorative door hardware'
p432
(I1
S'hardware'
p433
F0.9086745689655172
F0.9453503310603815
tp434
sS'toys & games fan shop'
p435
(I2
S'home & garden'
p436
F0.41330756488128106
F0.5163660654642619
tp437
sS'coffee'
p438
(I1
S'beverages'
p439
F0.9829912023460411
F0.9904534606205251
tp440
sS'dimmers switches & wall plates'
p441
(I1
S'electrical'
p442
F0.5627987000573504
F0.6844429347826086
tp443
sS'coffee tea and espresso'
p444
(I1
S'kitchen & dining'
p445
F0.9269680682895984
F0.919849931787176
tp446
sS'sandpaper'
p447
(I1
S'power & hand tools'
p448
F0.8698677800974252
F0.8792
tp449
sS'dinnerware'
p450
(I2
S'tabletop'
p451
F0.9649200710479574
F0.9726184997699033
tp452
sS'bathroom furniture'
p453
(I1
S'bath'
p454
F0.6491163475699558
F0.871242200794101
tp455
sS'fitness balls'
p456
(I2
S'sports equipment'
p457
F0.6218009478672986
F0.7042682926829268
tp458
sS'runners'
p459
(I2
S'area rugs & pads'
p460
F0.9996666666666667
F0.9996665555185061
tp461
sS'greenhouses'
p462
(I1
S'gardening'
p463
F0.7365356622998545
F0.6146245059288538
tp464
sS'indoor fireplaces'
p465
(I1
S'building supplies'
p466
F0.7323420074349443
F0.8216098622189992
tp467
sS'fences & trellises'
p468
(I1
S'gardening'
p469
F0.5443037974683544
F0.6992248062015504
tp470
sS'ventilation'
p471
(I1
S'building supplies'
p472
F0.49166666666666664
F0.7941888619854721
tp473
sS'gazebos & garden structures'
p474
(I1
S'patio furniture & accessories'
p475
F0.5130984643179766
F0.8380281690140845
tp476
sS'snow removal'
p477
(I1
S'gardening'
p478
F0.5616438356164384
F0.5390243902439025
tp479
sS'bathroom accessories'
p480
(I1
S'bath'
p481
F0.583184028666496
F0.9038841342988808
tp482
sS'mobility aids'
p483
(I1
S'medical supplies & equipment'
p484
F0.5919011306863002
F0.8565082185695246
tp485
sS'entertainment centers'
p486
(I1
S'furniture'
p487
F0.9872881355932204
F0.9856938483547926
tp488
sS'backpacks'
p489
(I1
S'luggage & bags'
p490
F0.876114726440106
F0.9559834938101788
tp491
sS'grills & accessories fan shop'
p492
(I2
S'home & garden'
p493
F0.9762470308788599
F0.8917274939172749
tp494
sS'kitchen sinks'
p495
(I1
S'kitchen & bath fixtures'
p496
F0.9834373499759962
F0.9843788137661704
tp497
sS'other arts & crafts'
p498
(I1
S'artwork'
p499
F0.745620731631832
F0.9358846643422436
tp500
sS'dutch ovens & roasters'
p501
(I1
S'kitchen & dining'
p502
F0.9847715736040609
F0.9707903780068728
tp503
sS'greeting cards & invitations'
p504
(I2
S'home decor accents'
p505
F0.945054945054945
F0.8471760797342193
tp506
sS'holiday lighting'
p507
(I1
S'seasonal decor'
p508
F0.8181137724550899
F0.9249771271729186
tp509
sS'sports nutrition'
p510
(I1
S'vitamins & dietary supplements'
p511
F0.851004851004851
F0.9193811074918566
tp512
sS'serveware'
p513
(I1
S'kitchen & dining'
p514
F0.8981566217806249
F0.9101892285298399
tp515
sS'prybars & crowbars'
p516
(I1
S'power & hand tools'
p517
F0.8853658536585366
F0.8608815426997245
tp518
sS'coolers'
p519
(I2
S'home & garden'
p520
F0.971883786316776
F0.9768563162970106
tp521
sS'baseball mitts & gloves'
p522
(I2
S'sports equipment'
p523
F0.6631762652705061
F0.8368421052631579
tp524
sS'measuring & layout tools'
p525
(I1
S'power & hand tools'
p526
F0.7121071475931574
F0.6970204841713221
tp527
sS'mens shoes'
p528
(I1
S'men'
p529
F0.5346901017576319
F0.893598615916955
tp530
sS'table tennis'
p531
(I2
S'home & garden'
p532
F0.8442367601246106
F0.8819188191881919
tp533
sS'party tableware'
p534
(I1
S'kitchen & dining'
p535
F0.7733990147783252
F0.8747346072186837
tp536
sS'body treatments'
p537
(I1
S'skin care'
p538
F0.9402985074626866
F0.9633699633699634
tp539
sS'decorative - exterior'
p540
(I1
S'exterior accessories'
p541
F0.7049214659685864
F0.9744503862150921
tp542
sS'all fragrances'
p543
(I1
S'fragrance'
p544
F0.9149705595994251
F0.9388902964276666
tp545
sS'baskets & bins'
p546
(I2
S'home decor accents'
p547
F0.9414376321353065
F0.9270154951717943
tp548
sS'water storage & treatments'
p549
(I1
S'building supplies'
p550
F0.4364820846905538
F0.6492537313432836
tp551
sS'facial cleansers'
p552
(I1
S'skin care'
p553
F0.9080459770114943
F0.9367088607594937
tp554
sS'auto repair tools'
p555
(I1
S'replacement parts'
p556
F0.577216871471272
F0.6611047180667434
tp557
sS'accent chests'
p558
(I1
S'furniture'
p559
F0.7915986949429038
F0.8191653786707882
tp560
sS'kids halloween costumes'
p561
(I2
S'home decor accents'
p562
F0.984321223709369
F0.9141414141414141
tp563
sS'bath hardware'
p564
(I1
S'bath'
p565
F0.8395357406042742
F0.9431643625192012
tp566
sS'wrenches & ratchets'
p567
(I1
S'power & hand tools'
p568
F0.928698752228164
F0.927063339731286
tp569
sS'indoor seasonal decor fan shop'
p570
(I2
S'home & garden'
p571
F0.875534188034188
F0.9219035997559487
tp572
sS'umbrellas'
p573
(I1
S'luggage & bags'
p574
F0.8347978910369068
F0.9578947368421052
tp575
sS'eye care'
p576
(I1
S'personal care'
p577
F0.5089605734767025
F0.7746478873239436
tp578
sS'pots'
p579
(I1
S'kitchen & dining'
p580
F0.9334016393442623
F0.9495060373216246
tp581
sS'garage storage'
p582
(I1
S'storage & organization'
p583
F0.4852282900626679
F0.7583025830258303
tp584
sS'clothing fan shop'
p585
(I2
S'clothing'
p586
F0.7418569824035942
F0.8798889730002524
tp587
sS'decorations'
p588
(I2
S'home decor accents'
p589
F0.9237132352941176
F0.9651741293532339
tp590
sS'bars & wine racks'
p591
(I1
S'furniture'
p592
F0.5260461144321094
F0.7857142857142857
tp593
sS'folding tables & chairs'
p594
(I1
S'furniture'
p595
F0.9797347089167281
F0.9872132380594209
tp596
sS'eyes'
p597
(I2
S'eyes'
p598
F0.9303246239113222
F0.9744680851063829
tp599
sS'nutritional bars & drinks'
p600
(I1
S'vitamins & dietary supplements'
p601
F0.958664546899841
F0.9734660033167496
tp602
sS'abrasives'
p603
(I1
S'power & hand tools'
p604
F0.8462862438766053
F0.7964643304130162
tp605
sS'shoes fan shop'
p606
(I2
S'clothing'
p607
F0.4064516129032258
F0.5952380952380952
tp608
sS'tool storage'
p609
(I1
S'power & hand tools'
p610
F0.5213079603323506
F0.7609254498714653
tp611
sS'cereal'
p612
(I1
S'snack foods'
p613
F0.4715960324616772
F0.5258126195028681
tp614
sS'albums'
p615
(I1
S'home decor'
p616
F0.8640727640222334
F0.9391812865497076
tp617
sS'pots & planters'
p618
(I1
S'gardening'
p619
F0.9270660667771726
F0.9486590038314177
tp620
sS'auto safety accessories'
p621
(I1
S'replacement parts'
p622
F0.3702770780856423
F0.7244897959183674
tp623
sS'shampoos'
p624
(I1
S'hair care'
p625
F0.9574088242795206
F0.9816196057538625
tp626
sS'kids table & chair sets'
p627
(I1
S'furniture'
p628
F0.983957219251337
F0.9850543478260869
tp629
sS'kitchen gadgets'
p630
(I1
S'kitchen & dining'
p631
F0.8939096267190569
F0.8949450549450549
tp632
sS'paint tools & supplies'
p633
(I1
S'painting supplies & wall treatments'
p634
F0.551094890510949
F0.6961920529801324
tp635
sS'halloween masks'
p636
(I2
S'home decor accents'
p637
F0.9981796116504854
F0.993920972644377
tp638
sS'juice'
p639
(I1
S'beverages'
p640
F0.9304245283018868
F0.9062103929024081
tp641
sS'screws'
p642
(I2
S'nails screws & fasteners'
p643
F0.8242159008023341
F0.9548672566371681
tp644
sS'ornaments & tree trim'
p645
(I1
S'seasonal decor'
p646
F0.7006951180084061
F0.8962971507671011
tp647
sS'rugs'
p648
(I2
S'area rugs & pads'
p649
F0.9748170673762235
F0.9922429880511378
tp650
sS'bakeware'
p651
(I1
S'kitchen & dining'
p652
F0.9565816678152997
F0.9373198847262247
tp653
sS'futons & loungers'
p654
(I1
S'home decor'
p655
F0.6330049261083743
F0.9260700389105059
tp656
sS'billiards'
p657
(I2
S'home & garden'
p658
F0.6047058823529412
F0.5700389105058365
tp659
sS'home decor'
p660
(I2
S'kitchen utensils & gadgets'
p661
F0.49684400360685305
F0.5172413793103449
tp662
sS'doors'
p663
(I2
S'door hardware & locks'
p664
F0.8640132669983416
F0.8349328214971209
tp665
sS'tool belts'
p666
(I1
S'power & hand tools'
p667
F0.6968641114982579
F0.7883333333333333
tp668
sS'sports equipment fan shop'
p669
(I2
S'sports equipment'
p670
F0.7902796271637816
F0.8386689132266217
tp671
sS'canopies & shelters'
p672
(I2
S'home & garden'
p673
F0.6450351837372947
F0.6
tp674
sS'travel accessories'
p675
(I2
S'home decor accents'
p676
F0.9529810043257476
F0.8567199526346951
tp677
sS'clocks fan shop'
p678
(I2
S'home & garden'
p679
F0.9979395604395604
F0.9710942876806608
tp680
sS'microwaves'
p681
(I1
S'kitchen & dining'
p682
F0.9613259668508287
F0.842911877394636
tp683
sS'jewelry storage'
p684
(I2
S'jewelry boxes & organizers'
p685
F0.9282051282051282
F0.9548802946593001
tp686
sS'ceiling fans'
p687
(I2
S'home decor accents'
p688
F0.9704678882761074
F0.9367552703941339
tp689
sS'sheets'
p690
(I1
S'bedding'
p691
F0.9647058823529412
F0.974706413730804
tp692
sS'daily living aids'
p693
(I1
S'health care'
p694
F0.5447402880838061
F0.7219551282051282
tp695
sS'jewelry fan shop'
p696
(I2
S'sports souvenirs'
p697
F0.5353077816492451
F0.5419830765892818
tp698
sS'bath fan shop'
p699
(I2
S'home & garden'
p700
F0.7443408788282291
F0.7549194991055456
tp701
sS'rugs fan shop'
p702
(I2
S'home & garden'
p703
F0.8593322386425835
F0.8394904458598726
tp704
sS'art supplies'
p705
(I2
S'home decor accents'
p706
F0.9502367551148039
F0.9038172245204964
tp707
sS'kids bedding'
p708
(I1
S'bedding'
p709
F0.9252243270189432
F0.9385775862068966
tp710
sS'face'
p711
(I2
S'face'
p712
F0.9760087241003271
F0.9605214152700187
tp713
sS'air compressors'
p714
(I1
S'power & hand tools'
p715
F0.71168
F0.7027877697841727
tp716
sS'pantries carts & islands'
p717
(I1
S'furniture'
p718
F0.8038610038610039
F0.9217098943323727
tp719
sS'party supplies'
p720
(I2
S'home decor accents'
p721
F0.9544729667163949
F0.9020696345801444
tp722
sS'welding & torches'
p723
(I1
S'power & hand tools'
p724
F0.8197138593873431
F0.848270692793661
tp725
sS'cushions & pillows'
p726
(I1
S'patio furniture & accessories'
p727
F0.9950074887668497
F0.9964877069744105
tp728
sS'tent accessories'
p729
(I2
S'home & garden'
p730
F0.4613899613899614
F0.5146443514644351
tp731
sS'beading & jewelry making'
p732
(I2
S'home decor accents'
p733
F0.9706147467099333
F0.9152117384843982
tp734
sS'golf balls'
p735
(I2
S'sports equipment'
p736
F0.9478609625668449
F0.9873060648801129
tp737
sS'curtain panels'
p738
(I2
S'window treatments'
p739
F0.988391376451078
F0.9916107382550335
tp740
sS'hair color'
p741
(I1
S'hair care'
p742
F0.9253472222222222
F0.949343339587242
tp743
sS'car covers & car protection'
p744
(I1
S'exterior accessories'
p745
F0.6324786324786325
F0.8183183183183184
tp746
sS'patio furniture covers'
p747
(I1
S'patio furniture & accessories'
p748
F0.9588313413014609
F0.9515235457063712
tp749
sS'irons & ironing boards'
p750
(I1
S'kitchen & dining'
p751
F0.7220026350461133
F0.7098540145985401
tp752
sS'sofas loveseats & sectionals'
p753
(I2
S'living room furniture'
p754
F0.99361249112846
F0.9928571428571429
tp755
sS'vacuum bags & accessories'
p756
(I1
S'kitchen & dining'
p757
F0.5890557939914163
F0.7231329690346083
tp758
sS'scarves & valances'
p759
(I1
S'home decor'
p760
F0.9940239043824701
F0.9939879759519038
tp761
sS'sunglasses'
p762
(I1
S'personal care'
p763
F0.872932634126664
F0.878003696857671
tp764
sS'skin care sets'
p765
(I1
S'skin care'
p766
F0.7680722891566265
F0.9084967320261438
tp767
sS'automotive fan shop'
p768
(I2
S'auto accessories'
p769
F0.7865880297072958
F0.9191891141349625
tp770
sS'quilts & bedspreads'
p771
(I1
S'bedding'
p772
F0.9601196410767697
F0.9719626168224299
tp773
sS'mens workwear shop'
p774
(I1
S'novelty & special use'
p775
F0.7694610778443114
F0.8482490272373541
tp776
sS'drills & drivers'
p777
(I1
S'power & hand tools'
p778
F0.9756162915326902
F0.9734962922274101
tp779
sS'motorcycle accessories'
p780
(I1
S'motorcycle & powersports'
p781
F0.7559055118110236
F0.8671875
tp782
sS'gloves'
p783
(I2
S'accessories'
p784
F0.8633962264150944
F0.9545454545454546
tp785
sS'party packs'
p786
(I1
S'kitchen & dining'
p787
F0.5101169482086505
F0.8053129548762736
tp788
sS'door accessories'
p789
(I1
S'hardware'
p790
F0.8896959913909066
F0.934986392500756
tp791
sS'mattress pads & toppers'
p792
(I1
S'bedding'
p793
F0.7955056179775281
F0.846045197740113
tp794
sS'cufflinks'
p795
(I1
S'mens jewelry'
p796
F0.6836996090063368
F0.89587852494577
tp797
sS'outdoor tableware & picnic'
p798
(I2
S'storage & organization'
p799
F0.8076923076923077
F0.6800595238095238
tp800
sS'baking mixes'
p801
(I1
S'canned dry & packaged foods'
p802
F0.7388724035608308
F0.8514056224899599
tp803
sS'water bottles & hydration'
p804
(I2
S'home & garden'
p805
F0.8013937282229965
F0.8782608695652174
tp806
sS'lifting equipment'
p807
(I1
S'building supplies'
p808
F0.6390386343216532
F0.8080843585237258
tp809
sS'hair styling tools'
p810
(I1
S'hair care'
p811
F0.9497536945812808
F0.9605809128630706
tp812
sS'bath rugs & mats'
p813
(I1
S'bath'
p814
F0.8097345132743363
F0.9631147540983607
tp815
sS'exterior car decoration'
p816
(I1
S'exterior accessories'
p817
F0.7459396751740139
F0.8748055987558321
tp818
sS'interior car accessories'
p819
(I1
S'replacement parts'
p820
F0.5466237942122186
F0.7647058823529411
tp821
sS'automotive repair'
p822
(I1
S'replacement parts'
p823
F0.5929061784897025
F0.6209957545349286
tp824
sS'heaters'
p825
(I1
S'building supplies'
p826
F0.7899938233477455
F0.9218139171227522
tp827
sS'vitamins'
p828
(I1
S'vitamins & dietary supplements'
p829
F0.6410771229479154
F0.8583271923360354
tp830
sS'coverings & protection'
p831
(I1
S'exterior accessories'
p832
F0.6135902636916836
F0.8396694214876033
tp833
sS'wall decals'
p834
(I2
S'home decor accents'
p835
F0.9456908344733242
F0.9158107912628382
tp836
sS'swimwear'
p837
(I2
S'swim'
p838
F0.9544025157232704
F0.9159802306425041
tp839
sS'fans'
p840
(I1
S'lighting & ceiling fans'
p841
F0.5996451803666469
F0.8205128205128205
tp842
sS'outdoor tables'
p843
(I1
S'patio furniture & accessories'
p844
F0.9858038956751403
F0.9926322839919625
tp845
sS'tires accessories'
p846
(I1
S'motorcycle & powersports'
p847
F0.3993584603047314
F0.678714859437751
tp848
sS'pillow cases'
p849
(I1
S'bedding'
p850
F0.9827868852459016
F0.9541284403669725
tp851
sS'other fan shop'
p852
(I2
S'home & garden'
p853
F0.6269187570198428
F0.8539862645565841
tp854
sS'sanders & polishers'
p855
(I1
S'power & hand tools'
p856
F0.7325443786982249
F0.8303715670436187
tp857
sS'all rings'
p858
(I3
S'diamond bands'
p859
F0.784999377050542
F0.8980002116178182
tp860
sS'facial treatments'
p861
(I1
S'skin care'
p862
F0.9448183041722745
F0.9629629629629629
tp863
sS'pot racks & hanging baskets'
p864
(I2
S'storage & organization'
p865
F0.8526466380543634
F0.9312080536912751
tp866
sS'all shirts'
p867
(I1
S'men'
p868
F0.780264496439471
F0.9250325945241199
tp869
sS'first aid'
p870
(I1
S'health care'
p871
F0.9052412356820548
F0.9206288343558282
tp872
sS'car lighting'
p873
(I2
S'lights & lighting accessories'
p874
F0.9287925696594427
F0.9566666666666667
tp875
sS'baseball field equipment & maintenance'
p876
(I2
S'home & garden'
p877
F0.7535596933187295
F0.5450581395348837
tp878
sS'table top & multi-game tables'
p879
(I2
S'home & garden'
p880
F0.7350923482849604
F0.6238334529791816
tp881
sS'mens halloween costumes'
p882
(I2
S'home decor accents'
p883
F0.9724683544303797
F0.9502115196876016
tp884
sS'christmas trees'
p885
(I1
S'seasonal decor'
p886
F0.9684797768479777
F0.9766705069124424
tp887
sS'file cabinets'
p888
(I1
S'furniture'
p889
F0.809348299547663
F0.9306561788449597
tp890
sS'blenders & juicers'
p891
(I1
S'kitchen & dining'
p892
F0.8394160583941606
F0.8289855072463768
tp893
sS'lanterns'
p894
(I2
S'home & garden'
p895
F0.7623762376237624
F0.599025974025974
tp896
sS'ratchets sockets & accessories'
p897
(I1
S'power & hand tools'
p898
F0.9759890235536245
F0.9802405498281787
tp899
sS'cards stationary & invitations'
p900
(I2
S'home decor accents'
p901
F0.9642248722316865
F0.8939929328621908
tp902
sS'stamping & embossing'
p903
(I2
S'home decor accents'
p904
F0.8997470682915613
F0.759008433427038
tp905
sS'womens shoes'
p906
(I1
S'women'
p907
F0.8946520618556701
F0.9121353979114152
tp908
sS'ceramic tile'
p909
(I1
S'building supplies'
p910
F0.9531600598354525
F0.9434036292300148
tp911
sS'hammers mallets & sledges'
p912
(I1
S'power & hand tools'
p913
F0.9054140127388535
F0.7963418923672178
tp914
sS'canvas wall art'
p915
(I1
S'artwork'
p916
F0.8654726735598227
F0.9655672654349959
tp917
sS'all tops'
p918
(I2
S'tops & tees'
p919
F0.7765614938828075
F0.818407960199005
tp920
sS'cake baking & pastry supplies'
p921
(I1
S'kitchen & dining'
p922
F0.8605442176870748
F0.9604743083003953
tp923
sS'closet storage & organizers'
p924
(I1
S'storage & organization'
p925
F0.4707740916271722
F0.7239932885906041
tp926
sS'novelty lighting'
p927
(I1
S'home decor'
p928
F0.6546875
F0.8158881691101262
tp929
sS'dressers'
p930
(I1
S'furniture'
p931
F0.8461192688043152
F0.9780414379316451
tp932
sS'styling products'
p933
(I1
S'hair care'
p934
F0.8802946593001841
F0.9274755927475593
tp935
sS'all earrings'
p936
(I1
S'earrings'
p937
F0.49299459333759665
F0.49056603773584906
tp938
sS'sleeping bags'
p939
(I2
S'clothing accessories'
p940
F0.60075329566855
F0.7366771159874608
tp941
sS'molding trim'
p942
(I1
S'building supplies'
p943
F0.9303609341825902
F0.8575992697398448
tp944
sS'hand creams & lotions'
p945
(I1
S'skin care'
p946
F0.9548949256791389
F0.9243156199677939
tp947
sS'cabinet hardware'
p948
(I2
S'cabinet hardware'
p949
F0.9057823129251701
F0.972962823882839
tp950
sS'sports & duffel bags'
p951
(I1
S'luggage & bags'
p952
F0.9321428571428572
F0.9329501915708812
tp953
sS'electronics fan shop'
p954
(I2
S'sports souvenirs'
p955
F0.44385194479297363
F0.6070671378091873
tp956
sS'additional auto replacement parts'
p957
(I1
S'replacement parts'
p958
F0.9726166328600405
F0.9947862356621481
tp959
sS'hair brushes & styling accessories'
p960
(I1
S'hair care'
p961
F0.8139963167587477
F0.9398190045248869
tp962
sS'food prep and processors'
p963
(I1
S'kitchen & dining'
p964
F0.9220246238030095
F0.9362017804154302
tp965
sS'other flooring'
p966
(I1
S'building supplies'
p967
F0.7072599531615925
F0.8785871964679912
tp968
sS'heating'
p969
(I1
S'building supplies'
p970
F0.7660338635197537
F0.9002009377093101
tp971
sS'kitchen faucets'
p972
(I1
S'kitchen & bath fixtures'
p973
F0.8690095846645367
F0.9552696078431373
tp974
sS'decorative accessories fan shop'
p975
(I2
S'home & garden'
p976
F0.5054445682928921
F0.916030534351145
tp977
sS'bathroom aids & safety'
p978
(I1
S'health care'
p979
F0.4966442953020134
F0.7848232848232848
tp980
sS'area rugs'
p981
(I2
S'area rugs & pads'
p982
F0.9865794329810434
F0.9750609306807232
tp983
sS'umbrellas & bases'
p984
(I1
S'patio furniture & accessories'
p985
F0.9854636591478697
F0.9888097660223805
tp986
sS'decor'
p987
(I2
S'home decor accents'
p988
F0.8680688336520076
F0.8458149779735683
tp989
sS'window hardware'
p990
(I1
S'hardware'
p991
F0.7201907790143084
F0.6070640176600441
tp992
sS'food prep'
p993
(I1
S'kitchen & dining'
p994
F0.9320226591136288
F0.9406506971755453
tp995
sS'kitchen & dining sets'
p996
(I1
S'furniture'
p997
F0.9866119628589938
F0.9884000875465091
tp998
sS'golf accessories'
p999
(I2
S'sports equipment'
p1000
F0.8696969696969697
F0.9729965156794426
tp1001
sS'recliners'
p1002
(I1
S'furniture'
p1003
F0.9943859649122807
F0.9985885673959068
tp1004
sS'slipcovers'
p1005
(I2
S'home decor accents'
p1006
F0.9307897071872228
F0.6935176358436607
tp1007
sS'toddler halloween costumes'
p1008
(I2
S'home decor accents'
p1009
F0.9934747145187602
F0.9704433497536946
tp1010
sS'wine beer & beverage chillers'
p1011
(I1
S'kitchen & dining'
p1012
F0.9313131313131313
F0.9783080260303688
tp1013
sS'tool sets'
p1014
(I1
S'power & hand tools'
p1015
F0.7180774748923959
F0.8311688311688312
tp1016
sS'desks'
p1017
(I1
S'furniture'
p1018
F0.882205310880829
F0.9617325869505369
tp1019
sS'wallpaper & accessories'
p1020
(I1
S'painting supplies & wall treatments'
p1021
F0.7599206349206349
F0.8224543080939948
tp1022
sS'wheelchairs'
p1023
(I1
S'medical supplies & equipment'
p1024
F0.8632958801498127
F0.9718004338394793
tp1025
sS'audio & media towers'
p1026
(I1
S'furniture'
p1027
F0.8777589134125636
F0.8820116054158608
tp1028
sS'kitchen & dining tables'
p1029
(I1
S'furniture'
p1030
F0.9936811698862611
F0.9972747093023255
tp1031
sS'specialty appliances'
p1032
(I1
S'kitchen & dining'
p1033
F0.8398418190805734
F0.8752207180694527
tp1034
sS'all halloween costumes'
p1035
(I2
S'home decor accents'
p1036
F0.9732300105671011
F0.9303896730606829
tp1037
sS'candles & candle holders'
p1038
(I1
S'home decor'
p1039
F0.9414755394870636
F0.9517580703228129
tp1040
sS'christmas lights'
p1041
(I1
S'seasonal decor'
p1042
F0.8754076973255055
F0.9634873323397913
tp1043
sS'all pendants & necklaces'
p1044
(I1
S'necklaces'
p1045
F0.4542979262308058
F0.36748205449857135
tp1046
sS'paint sprayers'
p1047
(I1
S'painting supplies & wall treatments'
p1048
F0.5394126738794436
F0.5759312320916905
tp1049
sS'counter organizers'
p1050
(I1
S'kitchen & dining'
p1051
F0.6325622775800712
F0.939521800281294
tp1052
sS'water coolers & filtration'
p1053
(I1
S'kitchen & dining'
p1054
F0.8485061511423551
F0.903893951946976
tp1055
sS'clocks & weather'
p1056
(I1
S'outdoor decor'
p1057
F0.8342898134863702
F0.9234737747205503
tp1058
sS'needlecrafts'
p1059
(I2
S'home decor accents'
p1060
F0.919558195269355
F0.8627762039660056
tp1061
sS'kitchen & dining fan shop'
p1062
(I2
S'home & garden'
p1063
F0.9193892628468232
F0.9324107142857143
tp1064
sS'clocks'
p1065
(I1
S'home decor'
p1066
F0.9794837855724685
F0.9878378378378379
tp1067
sS'wine racks'
p1068
(I2
S'storage & organization'
p1069
F0.9230240549828179
F0.9236783320923306
tp1070
sS'living room sets'
p1071
(I1
S'furniture'
p1072
F0.9979612640163099
F0.9887640449438202
tp1073
sS'blankets & throws'
p1074
(I1
S'bedding'
p1075
F0.928664353859497
F0.9469997665187952
tp1076
sS'tables'
p1077
(I2
S'home & garden'
p1078
F0.8775260257195346
F0.8729937194696441
tp1079
sS'drawers & carts'
p1080
(I1
S'furniture'
p1081
F0.638648860958366
F0.8277982779827798
tp1082
sS'screwdrivers'
p1083
(I1
S'power & hand tools'
p1084
F0.9591608391608392
F0.9547973170020414
tp1085
sS'tops'
p1086
(I2
S'tops & tees'
p1087
F0.7635658914728682
F0.9390862944162437
tp1088
sS'protective gear fan shop'
p1089
(I2
S'sports souvenirs'
p1090
F0.9028871391076115
F0.938953488372093
tp1091
sS'fountains & ponds'
p1092
(I1
S'outdoor decor'
p1093
F0.6302454473475851
F0.6991206030150754
tp1094
sS'drawers & cabinet organizers'
p1095
(I2
S'storage & organization'
p1096
F0.7853159851301115
F0.8875739644970414
tp1097
sS'guest & reception chairs'
p1098
(I1
S'furniture'
p1099
F0.99625
F0.9949811794228356
tp1100
sS'sports accessories fan shop'
p1101
(I2
S'home & garden'
p1102
F0.5858585858585859
F0.7931034482758621
tp1103
sS'coat racks & umbrella stands'
p1104
(I2
S'other furniture'
p1105
F0.8630978499341817
F0.9084900864260295
tp1106
sS'christmas stockings'
p1107
(I1
S'seasonal decor'
p1108
F0.9295958279009127
F0.9775596072931276
tp1109
sS'bedding sets'
p1110
(I1
S'bedding'
p1111
F0.9535630216135245
F0.9607271095152603
tp1112
sS'cookware sets'
p1113
(I1
S'kitchen & dining'
p1114
F0.979539641943734
F0.9543080939947781
tp1115
sS'socks & hosiery'
p1116
(I1
S'women'
p1117
F0.8213081591368847
F0.909688013136289
tp1118
sS'outdoor seating'
p1119
(I1
S'patio furniture & accessories'
p1120
F0.9838888888888889
F0.9867306606437041
tp1121
sS'wall art fan shop'
p1122
(I2
S'home & garden'
p1123
F0.7959834000296429
F0.9418582999720696
tp1124
sS'kids lounge seating'
p1125
(I1
S'furniture'
p1126
F0.9375965400061785
F0.9555189456342669
tp1127
sS'bathroom vanities'
p1128
(I1
S'kitchen & bath fixtures'
p1129
F0.8356731195507611
F0.9893899204244032
tp1130
sS'party favors & goody bags'
p1131
(I2
S'home decor accents'
p1132
F0.972693032015066
F0.9152952565343659
tp1133
sS'window blinds'
p1134
(I1
S'home decor'
p1135
F1.0
F0.9947916666666666
tp1136
sS'candy'
p1137
(I1
S'candy & chocolate'
p1138
F0.8772881355932204
F0.8601236476043277
tp1139
sS'diet foods & drinks'
p1140
(I1
S'vitamins & dietary supplements'
p1141
F0.8113975576662144
F0.8795986622073578
tp1142
sS'wallets money & key organizers'
p1143
(I3
S'accessories'
p1144
F0.9407327586206896
F0.9369988545246277
tp1145
sS'air conditioners'
p1146
(I1
S'building supplies'
p1147
F0.6991929567131328
F0.8929695697796433
tp1148
sS'towels'
p1149
(I1
S'bath'
p1150
F0.8481132075471698
F0.8203559510567296
tp1151
sS'mattresses'
p1152
(I2
S'bedroom furniture'
p1153
F0.9506048387096774
F0.9734888653234358
tp1154
sS'sports mats & accessories'
p1155
(I2
S'home & garden'
p1156
F0.5386454183266932
F0.5547337278106509
tp1157
sS'lips'
p1158
(I2
S'lips'
p1159
F0.9495347172512527
F0.9864304560874482
tp1160
sS'living room chairs'
p1161
(I1
S'furniture'
p1162
F0.8241344343039259
F0.9820706626823695
tp1163
sS'bedding fan shop'
p1164
(I2
S'home & garden'
p1165
F0.9926634768740031
F0.997107969151671
tp1166
sS'decorative pillows'
p1167
(I2
S'decorative pillows inserts & covers'
p1168
F0.979011780853254
F0.9968456101407792
tp1169
sS'sauces'
p1170
(I1
S'pantry staples'
p1171
F0.7628596338273758
F0.728
tp1172
sS'shower heads'
p1173
(I1
S'kitchen & bath fixtures'
p1174
F0.9515124555160143
F0.9551192145862553
tp1175
sS'weight plates & racks'
p1176
(I2
S'home & garden'
p1177
F0.41788321167883213
F0.6899563318777293
tp1178
sS'incontinence'
p1179
(I1
S'health care'
p1180
F0.8216216216216217
F0.8401315789473685
tp1181
sS'lawn games'
p1182
(I2
S'home & garden'
p1183
F0.46009036144578314
F0.5368248772504092
tp1184
sS'salt & pepper shakers mills'
p1185
(I1
S'kitchen & dining'
p1186
F0.9044334975369458
F0.9161220043572985
tp1187
sS'patient care'
p1188
(I1
S'health care'
p1189
F0.4602017937219731
F0.7600487210718636
tp1190
sS'hair treatments'
p1191
(I1
S'hair care'
p1192
F0.8899159663865546
F0.9480642115203022
tp1193
sS'accent rugs'
p1194
(I2
S'area rugs & pads'
p1195
F0.9949706621961442
F0.9991575400168492
tp1196
sS'bags fan shop'
p1197
(I2
S'clothing accessories'
p1198
F0.679773156899811
F0.7441601779755284
tp1199
sS'bath faucets'
p1200
(I1
S'kitchen & bath fixtures'
p1201
F0.8459951565162794
F0.9649067005937235
tp1202
sS'nails'
p1203
(I2
S'nails screws & fasteners'
p1204
F0.8406546080964685
F0.8837090163934426
tp1205
sS'mixers & attachments'
p1206
(I1
S'kitchen & dining'
p1207
F0.6923076923076923
F0.8455284552845529
tp1208
sS'pliers'
p1209
(I1
S'power & hand tools'
p1210
F0.9693415089309517
F0.9804730473047305
tp1211
sS'drinkware'
p1212
(I1
S'kitchen & dining'
p1213
F0.9507249315624049
F0.9702463474458782
tp1214
sS'lighting accessories'
p1215
(I1
S'home decor'
p1216
F0.9408866995073891
F0.9226741844542892
tp1217
sS'wall decor'
p1218
(I2
S'home decor accents'
p1219
F0.8228867950293596
F0.9459010952538998
tp1220
sS'lawn mowers'
p1221
(I1
S'mowers & outdoor power tools'
p1222
F0.522140221402214
F0.7102473498233216
tp1223
sS'benches'
p1224
(I1
S'furniture'
p1225
F0.9850803366488141
F0.9840776699029126
tp1226
sS'air filters'
p1227
(I1
S'building supplies'
p1228
F0.7764550264550265
F0.8824531516183987
tp1229
sS'night stands'
p1230
(I1
S'furniture'
p1231
F0.9771559109080525
F0.9924021040327294
tp1232
sS'safety & protection products'
p1233
(I1
S'safety & security'
p1234
F0.7959183673469388
F0.9358974358974359
tp1235
sS'air compressor accessories'
p1236
(I1
S'power & hand tools'
p1237
F0.6528991262907069
F0.7433090024330901
tp1238
sS'body cleansers'
p1239
(I1
S'bath & body'
p1240
F0.6750118091639112
F0.9282715185444367
tp1241
sS'golf bags & carts'
p1242
(I2
S'sports equipment'
p1243
F0.7903726708074534
F0.9214145383104125
tp1244
sS'lights & flashlights'
p1245
(I2
S'home & garden'
p1246
F0.6635967038293747
F0.533235938641344
tp1247
sS'ovens & ranges'
p1248
(I1
S'kitchen & dining'
p1249
F0.7581667479278401
F0.8128617363344052
tp1250
sS'comforters'
p1251
(I1
S'bedding'
p1252
F0.9615384615384616
F0.9823529411764705
tp1253
sS'bench saws'
p1254
(I1
S'power & hand tools'
p1255
F0.8190661478599222
F0.7814726840855107
tp1256
sS'grease guns'
p1257
(I1
S'power & hand tools'
p1258
F0.7250996015936255
F0.7857142857142857
tp1259
sS'files & planes'
p1260
(I1
S'power & hand tools'
p1261
F0.8941580756013746
F0.7747886241352806
tp1262
sS'frames'
p1263
(I1
S'home decor'
p1264
F0.8928702908332311
F0.9442001099505223
tp1265
sS'cough cold & flu'
p1266
(I1
S'health care'
p1267
F0.6911519198664441
F0.7657004830917874
tp1268
sS'saw blades'
p1269
(I1
S'power & hand tools'
p1270
F0.9329268292682927
F0.5608660130718954
tp1271
sS'hooks racks & hangers'
p1272
(I1
S'storage & organization'
p1273
F0.7112848070346849
F0.8475274725274725
tp1274
sS'bookcases'
p1275
(I2
S'other furniture'
p1276
F0.9050191312176458
F0.9263864710271077
tp1277
sS'hitching & towing'
p1278
(I1
S'exterior accessories'
p1279
F0.8749741254398675
F0.9652235628105039
tp1280
sS'salt spices & seasoning'
p1281
(I1
S'canned dry & packaged foods'
p1282
F0.3912681912681913
F0.5887353878852285
tp1283
sS'car floor mats & cargo mats'
p1284
(I2
S'floor mats & cargo liners'
p1285
F0.9897192566231712
F0.9952057530962845
tp1286
sS'accent tables'
p1287
(I1
S'furniture'
p1288
F0.9886859424683871
F0.9910994764397906
tp1289
sS'outdoor decor fan shop'
p1290
(I2
S'home & garden'
p1291
F0.8068264342774146
F0.9495949594959496
tp1292
sS'bedroom aids & safety'
p1293
(I1
S'health care'
p1294
F0.6455906821963394
F0.75
tp1295
sS'kids beds & headboards'
p1296
(I2
S'bedroom furniture'
p1297
F0.9928251121076234
F0.9941282746160794
tp1298
sS'specialty cookware'
p1299
(I1
S'kitchen & dining'
p1300
F0.9626068376068376
F0.9400665926748057
tp1301
sS'beauty tools & accessories'
p1302
(I1
S'tools & accessories'
p1303
F0.48445675592489995
F0.8564167725540025
tp1304
sS'metal wall art'
p1305
(I2
S'home decor accents'
p1306
F0.9039780521262003
F0.9822964087000505
tp1307
sS'beds'
p1308
(I2
S'bedroom furniture'
p1309
F0.9793090707555884
F0.9903791737408036
tp1310
sS'vanities & vanity stools'
p1311
(I1
S'furniture'
p1312
F0.9186164801627671
F0.973421926910299
tp1313
sS'floor & cargo mats'
p1314
(I2
S'floor mats & cargo liners'
p1315
F0.9923422233958278
F0.9968068121341139
tp1316
sS'taps & dies'
p1317
(I1
S'power & hand tools'
p1318
F0.8870967741935484
F0.7285714285714285
tp1319
sS'drill & router bits'
p1320
(I1
S'power & hand tools'
p1321
F0.9420592705167173
F0.9556362169792297
tp1322
sS'exercise mats'
p1323
(I2
S'home & garden'
p1324
F0.7842401500938087
F0.7727272727272727
tp1325
sS'hand wrenches'
p1326
(I1
S'power & hand tools'
p1327
F0.9713740458015268
F0.9786201317462152
tp1328
sS'artificial plants & flowers'
p1329
(I2
S'home decor accents'
p1330
F0.985039271911233
F0.9555752436400455
tp1331
sS'slow cookers rice cookers & steamers'
p1332
(I1
S'kitchen & dining'
p1333
F0.983370288248337
F0.9751972942502819
tp1334
sS'china cabinets & buffets'
p1335
(I1
S'furniture'
p1336
F0.8866242038216561
F0.8796695402298851
tp1337
sS'mailboxes & address plaques'
p1338
(I1
S'hardware'
p1339
F0.9360505973295854
F0.933933933933934
tp1340
sS'utensils'
p1341
(I1
S'kitchen & dining'
p1342
F0.9355812783090085
F0.9521247982786444
tp1343
sS'feminine care'
p1344
(I1
S'personal care'
p1345
F0.5499276410998553
F0.7657894736842106
tp1346
sS'ottomans'
p1347
(I1
S'furniture'
p1348
F0.956989247311828
F0.9556982343499197
tp1349
sS'sleepwear & robes'
p1350
(I2
S'sleep & lounge'
p1351
F0.8307692307692308
F0.8462962962962963
tp1352
sS'other home improvement'
p1353
(I1
S'lighting & ceiling fans'
p1354
F0.35467980295566504
F0.9212962962962963
tp1355
sS'dresses'
p1356
(I1
S'women'
p1357
F0.8427518427518428
F0.9897959183673469
tp1358
sS'chisels & gouges'
p1359
(I1
S'power & hand tools'
p1360
F0.8835877862595419
F0.896328293736501
tp1361
sS'grinders'
p1362
(I1
S'power & hand tools'
p1363
F0.870940170940171
F0.8410206084396468
tp1364
sS'posters'
p1365
(I1
S'artwork'
p1366
F0.9385446294461667
F0.9876736584037047
tp1367
sS'specialty fasteners'
p1368
(I1
S'hardware'
p1369
F0.42997888810696694
F0.7401800327332242
tp1370
sS'kitchen textiles'
p1371
(I1
S'kitchen & dining'
p1372
F0.7846301633045148
F0.9476003917727718
tp1373
sS'door security'
p1374
(I2
S'door hardware & locks'
p1375
F0.8773388773388774
F0.8720379146919431
tp1376
sS'camping fan shop'
p1377
(I2
S'home & garden'
p1378
F0.907859078590786
F0.8992537313432836
tp1379
sS'sun care'
p1380
(I1
S'skin care'
p1381
F0.9551478083588175
F0.9434364994663821
tp1382
sS'light bulbs'
p1383
(I1
S'electrical'
p1384
F0.9025416869030274
F0.9481614349775784
tp1385
sS'air purifiers'
p1386
(I1
S'building supplies'
p1387
F0.4394057857701329
F0.6476868327402135
tp1388
sS'chairs & stools'
p1389
(I2
S'home & garden'
p1390
F0.96484375
F0.9919028340080972
tp1391
sS'knives & sharpeners'
p1392
(I1
S'kitchen & dining'
p1393
F0.94793799356537
F0.916075285405739
tp1394
sS'fireplace accessories'
p1395
(I1
S'building supplies'
p1396
F0.5257142857142857
F0.7360248447204969
tp1397
sS'ramps lifts and jacks'
p1398
(I2
S'shocks struts & suspension'
p1399
F0.4850340136054422
F0.5539971949509116
tp1400
sa.