(lp0
(dp1
S'baby'
p2
(I1
S'nursery'
p3
F0.6925795053003534
F0.8469387755102041
tp4
sS'books & media'
p5
(I0
S'books'
p6
F0.8052554253007255
F0.8437903013420431
tp7
sS'eziba'
p8
(I0
S'home & kitchen'
p9
F0.9523809523809523
F0.76
tp10
sS'home & garden'
p11
(I1
S'home'
p12
F0.8173442390818304
F0.8963835098077209
tp13
sS'bedding & bath'
p14
(I0
S'home & kitchen'
p15
F0.9000449741398696
F0.8563397876327296
tp16
sS'health & beauty'
p17
(I0
S'beauty'
p18
F0.8249511036602403
F0.9154953429297206
tp19
sS'luggage & bags'
p20
(I1
S'luggage & bags'
p21
F0.9128113879003559
F0.9831059129304743
tp22
sS'pet supplies'
p23
(I0
S'pet supplies'
p24
F0.7901990811638591
F0.8624031007751938
tp25
sS'worldstock fair trade'
p26
(I0
S'jewelry'
p27
F0.467626542657843
F0.8747370434117422
tp28
sS'jewelry & watches'
p29
(I0
S'jewelry'
p30
F0.8519110526068356
F0.9821385869065357
tp31
sS'clothing & shoes'
p32
(I1
S'women'
p33
F0.6730286601683282
F0.8973207387797567
tp34
sS'sales & promotions'
p35
(I0
S'home & kitchen'
p36
F0.8020833333333334
F0.7943722943722944
tp37
sS'main street revolution'
p38
(I0
S'jewelry'
p39
F0.42053445850914206
F0.7775919732441472
tp40
sS'sports & toys'
p41
(I1
S'fan shop'
p42
F0.5674591807505013
F0.8563856638061585
tp43
sS'electronics'
p44
(I0
S'electronics'
p45
F0.6417532958935755
F0.8482854926299457
tp46
sS'crafts & sewing'
p47
(I1
S'scrapbooking'
p48
F0.616044090630741
F0.904572564612326
tp49
sS'office supplies'
p50
(I1
S'computers & accessories'
p51
F0.8282659538924156
F0.918515530455829
tp52
sa(dp53
S'fitness & nutrition'
p54
(I1
S'skin care'
p55
F0.6642857142857143
F0.6129032258064516
tp56
sS'janitorial & cleaning'
p57
(I2
S'touch screen tablet accessories'
p58
F0.45217391304347826
F0.5769230769230769
tp59
sS'accessories'
p60
(I2
S'accessories'
p61
F0.9286239882266373
F0.9083465398837823
tp62
sS'watches'
p63
(I1
S'all watches'
p64
F0.9954529555788737
F0.9939095806980558
tp65
sS'outdoors'
p66
(I2
S'home & garden'
p67
F0.41244573082489144
F0.5824561403508772
tp68
sS'cameras & photo'
p69
(I1
S'camera & photo'
p70
F0.8006823997725334
F0.9527698863636364
tp71
sS'blankets & throws'
p72
(I1
S'home'
p73
F0.5316455696202531
F0.8679653679653679
tp74
sS'collectibles'
p75
(I2
S'home & garden'
p76
F0.5171686746987951
F0.8072218986604542
tp77
sS'fashion bedding'
p78
(I2
S'sheets & pillowcases'
p79
F0.6841556636553162
F0.9461655662772981
tp80
sS'printers & scanners'
p81
(I1
S'computers & accessories'
p82
F0.938953488372093
F0.9705882352941176
tp83
sS'bath & towels'
p84
(I1
S'bath'
p85
F0.5014925373134328
F0.7738095238095238
tp86
sS'monitors & displays'
p87
(I1
S'computers & accessories'
p88
F0.7213541666666666
F0.9338146811070999
tp89
sS'audio & video'
p90
(I3
S'cables & interconnects'
p91
F0.7737281700835231
F0.7649656526005888
tp92
sS'kids & teen bedding'
p93
(I2
S'sheets & pillowcases'
p94
F0.7384196185286104
F0.8450184501845018
tp95
sS'office electronics'
p96
(I2
S'cables & accessories'
p97
F0.9976825028968713
F0.9907084785133565
tp98
sS'sunglasses'
p99
(I3
S'sunglasses & eyewear accessories'
p100
F0.997250229147571
F0.9949448529411765
tp101
sS'health & beauty'
p102
(I1
S'all pendants & necklaces'
p103
F0.35864978902953587
F0.8705882352941177
tp104
sS'beauty products'
p105
(I1
S'fragrance'
p106
F0.52394322258618
F0.9327180708544209
tp107
sS'golf equipment'
p108
(I2
S'sports equipment'
p109
F0.6809470124013529
F0.7798013245033113
tp110
sS'mens sport clothing'
p111
(I2
S'clothing'
p112
F0.8676470588235294
F0.9254237288135593
tp113
sS'designer store'
p114
(I2
S'accessories'
p115
F0.7565929069414974
F0.6558493589743589
tp116
sS'memory foam'
p117
(I2
S'decorative pillows inserts & covers'
p118
F0.7488584474885844
F0.6890243902439024
tp119
sS'luggage'
p120
(I2
S'luggage'
p121
F0.9679358717434869
F0.0
tp122
sS'womens sport clothing'
p123
(I2
S'clothing'
p124
F0.9544072948328267
F0.9681528662420382
tp125
sS'sale'
p126
(I1
S'home'
p127
F0.8020833333333334
F0.9025974025974026
tp128
sS'down bedding'
p129
(I1
S'home'
p130
F0.545
F0.8348623853211009
tp131
sS'computers hardware & software'
p132
(I1
S'computers & accessories'
p133
F0.8489369468017155
F0.9566829687751921
tp134
sS'mattress pads & toppers'
p135
(I2
S'sheets & pillowcases'
p136
F0.5714285714285714
F0.8108108108108109
tp137
sS'sheets'
p138
(I2
S'sheets & pillowcases'
p139
F0.9780077619663649
F0.9920634920634921
tp140
sS'sheets & pillowcases'
p141
(I2
S'sheets & pillowcases'
p142
F0.9824890556597874
F0.9949077021005729
tp143
sS'pillows & protectors'
p144
(I1
S'home'
p145
F0.7735849056603774
F0.7804878048780488
tp146
sa(dp147
S'eyeglasses'
p148
(I3
S'sunglasses & eyewear accessories'
p149
F0.998755444928438
F0.9956386292834891
tp150
sS'printers & supplies'
p151
(I3
S'printer ink & toner'
p152
F0.9976825028968713
F1.0
tp153
sS'commercial it hardware'
p154
(I2
S'networking products'
p155
F0.42730844793713163
F0.9080459770114943
tp156
sS'hats'
p157
(I3
S'hats & caps'
p158
F0.9820627802690582
F0.9680365296803652
tp159
sS'lcd monitors'
p160
(I2
S'monitors'
p161
F0.9122486288848263
F0.8356713426853707
tp162
sS'keyboards & mice'
p163
(I2
S'cables & accessories'
p164
F0.7991967871485943
F0.9560301507537688
tp165
sS'computer components'
p166
(I3
S'cables & interconnects'
p167
F0.9329819277108434
F0.870863599677159
tp168
sS'optical drives'
p169
(I2
S'computer components'
p170
F0.9351851851851852
F0.9504950495049505
tp171
sS'designer sunglasses'
p172
(I3
S'sunglasses & eyewear accessories'
p173
F1.0
F1.0
tp174
sS'photo accessories'
p175
(I2
S'accessories'
p176
F0.8105950653120464
F0.0
tp177
sS'e-book readers'
p178
(I2
S'touch screen tablet accessories'
p179
F0.9461538461538461
F0.9560975609756097
tp180
sS'computer hardware'
p181
(I2
S'computer components'
p182
F0.8313762329732268
F0.9338983050847458
tp183
sS'monitor accessories'
p184
(I3
S'cables & interconnects'
p185
F0.8991735537190083
F0.8933823529411765
tp186
sS'pdas'
p187
(I2
S'pdas handhelds & accessories'
p188
F0.4144144144144144
F0.6956521739130435
tp189
sS'printers'
p190
(I2
S'cables & accessories'
p191
F0.8845315904139434
F0.8300492610837439
tp192
sS'floppy drives'
p193
(I3
S'cables & interconnects'
p194
F0.6707317073170732
F0.703030303030303
tp195
sS'wallets'
p196
(I3
S'wallets card cases & money organizers'
p197
F0.984182776801406
F0.9696428571428571
tp198
sS'networking'
p199
(I2
S'networking products'
p200
F0.7209106239460371
F0.839766081871345
tp201
sS'scarves & wraps'
p202
(I3
S'scarves & wraps'
p203
F0.9659949622166247
F0.9778357235984355
tp204
sS'printer accessories'
p205
(I3
S'printer ink & toner'
p206
F0.9735849056603774
F0.9819121447028424
tp207
sS'hard drives'
p208
(I2
S'data storage'
p209
F0.735897435897436
F0.9698025551684089
tp210
sS'storage & blank media'
p211
(I2
S'data storage'
p212
F0.5717463848720801
F0.9455252918287937
tp213
sS'computers'
p214
(I2
S'laptop & netbook computer accessories'
p215
F0.44345066358915175
F0.8126219908913468
tp216
sS'computer accessories'
p217
(I3
S'cables & interconnects'
p218
F0.8812548612911589
F0.9267431597528685
tp219
sS'designer accessories'
p220
(I3
S'wallets card cases & money organizers'
p221
F0.5796610169491525
F0.9473684210526315
tp222
sS'software'
p223
(I2
S'cables & accessories'
p224
F0.49558823529411766
F0.5103857566765578
tp225
sa(dp226
S'photo filters'
p227
(I3
S'digital camera accessories'
p228
F0.7524752475247525
F0.5789473684210527
tp229
sS'camera bags & cases'
p230
(I3
S'digital camera accessories'
p231
F0.7307692307692307
F0.7406015037593985
tp232
sS'educational'
p233
(I3
S'cables & interconnects'
p234
F0.585635359116022
F0.5094339622641509
tp235
sS'keyboard mice sets'
p236
(I3
S'keyboard & mice accessories'
p237
F0.696078431372549
F1.0
tp238
sS'printer paper'
p239
(I3
S'printer ink & toner'
p240
F0.7251461988304093
F0.6774193548387096
tp241
sS'all-in-one printers'
p242
(I3
S'printer ink & toner'
p243
F0.8633540372670807
F0.7985611510791367
tp244
sS'keyboards & keypads'
p245
(I3
S'keyboard & mice accessories'
p246
F0.8
F0.9791666666666666
tp247
sS'pc memory'
p248
(I3
S'memory'
p249
F0.9740634005763689
F0.0
tp250
sS'camera batteries & chargers'
p251
(I3
S'batteries & chargers'
p252
F0.8970588235294118
F0.9733606557377049
tp253
sS'mice & trackballs'
p254
(I3
S'keyboard & mice accessories'
p255
F0.7035398230088495
F0.7955974842767296
tp256
sS'lenses & flashes'
p257
(I3
S'digital camera accessories'
p258
F0.8997289972899729
F0.7560240963855421
tp259
sS'inkjet printers'
p260
(I3
S'printer ink & toner'
p261
F0.9133858267716536
F0.9741379310344828
tp262
sS'kvm switches'
p263
(I3
S'cables & interconnects'
p264
F0.9603960396039604
F0.9587628865979382
tp265
sa(dp266
a(dp267
a.