(lp0
(dp1
S'grocery'
p2
(I0
S'grocery & gourmet food'
p3
F0.4380348652931854
tp4
sS'jewelry'
p5
(I0
S'jewelry'
p6
F0.7665557490388096
tp7
sS'beauty'
p8
(I0
S'beauty'
p9
F0.8444107998990663
tp10
sS'cell phones'
p11
(I1
S'telephones'
p12
F0.9188219637794365
tp13
sS'patio & garden'
p14
(I0
S'patio lawn & garden'
p15
F0.35953334204554904
tp16
sS'video games'
p17
(I0
S'books & media'
p18
F0.9192567012004604
tp19
sS'auto & tires'
p20
(I0
S'automotive'
p21
F0.5463711187935482
tp22
sS'home improvement'
p23
(I0
S'tools & home improvement'
p24
F0.5302222267369612
tp25
sS'apparel'
p26
(I0
S'clothing & accessories'
p27
F0.47729949287379525
tp28
sS'movies & tv'
p29
(I0
S'books & media'
p30
F0.9826658279164046
tp31
sS'books'
p32
(I0
S'books & media'
p33
F0.995293941083144
tp34
sS'music'
p35
(I0
S'books & media'
p36
F0.9984620116887112
tp37
sS'pets'
p38
(I0
S'pet supplies'
p39
F0.5393254831690771
tp40
sS'toys'
p41
(I0
S'books & media'
p42
F0.5680673623141694
tp43
sS'baby'
p44
(I1
S'nursery'
p45
F0.4722171945701357
tp46
sS'home'
p47
(I1
S'home & garden'
p48
F0.6763355667859627
tp49
sS'electronics'
p50
(I2
S'computers hardware & software'
p51
F0.5785325173179098
tp52
sS'health'
p53
(I0
S'health & personal care'
p54
F0.4873230287166358
tp55
sS'sports & outdoors'
p56
(I1
S'fan shop'
p57
F0.7472478945210232
tp58
sa(dp59
S'hunting accessories'
p60
(I2
S'hunting'
p61
F0.5452034153691612
tp62
sS'pressure washers'
p63
(I1
S'power & hand tools'
p64
F0.4010152284263959
tp65
sS'chairs & stools'
p66
(I2
S'gameday & tailgating'
p67
F0.7265625
tp68
sS'car battery chargers & accessories'
p69
(I1
S'replacement parts'
p70
F0.8481012658227848
tp71
sS'cereal'
p72
(I1
S'breakfast foods'
p73
F0.7403065825067628
tp74
sS'cushions & pillows'
p75
(I1
S'patio furniture & accessories'
p76
F0.9950074887668497
tp77
sS'clocks & weather'
p78
(I1
S'outdoor decor'
p79
F0.8342898134863702
tp80
sS'hooks'
p81
(I2
S'cabinet hardware'
p82
F0.6385333794534763
tp83
sS'saw blades'
p84
(I1
S'power & hand tools'
p85
F0.9329268292682927
tp86
sS'golf balls'
p87
(I2
S'sports equipment'
p88
F0.5802139037433155
tp89
sS'kitchen & dining fan shop'
p90
(I2
S'home & garden'
p91
F0.8638975537678543
tp92
sS'ladders'
p93
(I1
S'building supplies'
p94
F0.9110459433040078
tp95
sS'cabinet hardware'
p96
(I2
S'cabinet hardware'
p97
F0.9057823129251701
tp98
sS'chains ropes & tiedowns'
p99
(I2
S'door hardware & locks'
p100
F0.45733113673805603
tp101
sS'safety equipment & gear'
p102
(I1
S'safety & security'
p103
F0.7094150766343447
tp104
sS'braces & straps'
p105
(I2
S'door hardware & locks'
p106
F0.6979742173112339
tp107
sS'briefcases'
p108
(I1
S'luggage & bags'
p109
F0.9312169312169312
tp110
sS'wallets money & key organizers'
p111
(I3
S'accessories'
p112
F0.9407327586206896
tp113
sS'hammocks & swings'
p114
(I1
S'patio furniture & accessories'
p115
F0.9728476821192052
tp116
sS'blood pressure monitors'
p117
(I1
S'medical supplies & equipment'
p118
F0.8993788819875776
tp119
sS'motorcycle accessories'
p120
(I1
S'motorcycle & powersports'
p121
F0.7559055118110236
tp122
sS'home security'
p123
(I1
S'safety & security'
p124
F0.3916083916083916
tp125
sS'massage equipment'
p126
(I2
S'body'
p127
F0.7556420233463035
tp128
sS'patio furniture covers'
p129
(I1
S'patio furniture & accessories'
p130
F0.9588313413014609
tp131
sS'tops'
p132
(I1
S'women'
p133
F0.7015503875968992
tp134
sS'protective gear fan shop'
p135
(I2
S'sports souvenirs'
p136
F0.9015748031496063
tp137
sS'massagers'
p138
(I1
S'sexual wellness'
p139
F0.5363214837712519
tp140
sS'accessories fan shop'
p141
(I2
S'clothing accessories'
p142
F0.2505787037037037
tp143
sS'decorative door hardware'
p144
(I1
S'hardware'
p145
F0.9086745689655172
tp146
sS'mens workwear shop'
p147
(I1
S'novelty & special use'
p148
F0.7694610778443114
tp149
sS'toilet lids & seats'
p150
(I1
S'kitchen & bath fixtures'
p151
F0.9123184507799892
tp152
sS'toys & games fan shop'
p153
(I2
S'toys & game room'
p154
F0.5096631695196024
tp155
sS'coffee'
p156
(I1
S'beverages'
p157
F0.9788856304985337
tp158
sS'sunglasses'
p159
(I1
S'personal care'
p160
F0.872932634126664
tp161
sS'golf accessories'
p162
(I2
S'sports equipment'
p163
F0.6477272727272727
tp164
sS'skin care sets'
p165
(I1
S'skin care'
p166
F0.7680722891566265
tp167
sS'dimmers switches & wall plates'
p168
(I1
S'electrical'
p169
F0.5627987000573504
tp170
sS'socks & hosiery'
p171
(I1
S'women'
p172
F0.8213081591368847
tp173
sS'deodorants & antiperspirant'
p174
(I1
S'personal care'
p175
F0.9584109248913718
tp176
sS'automotive fan shop'
p177
(I2
S'auto accessories'
p178
F0.7782874617737003
tp179
sS'sandpaper'
p180
(I1
S'power & hand tools'
p181
F0.8698677800974252
tp182
sS'outdoor seating'
p183
(I1
S'patio furniture & accessories'
p184
F0.9838888888888889
tp185
sS'sports nutrition'
p186
(I1
S'vitamins & dietary supplements'
p187
F0.851004851004851
tp188
sS'air conditioners'
p189
(I1
S'building supplies'
p190
F0.6991929567131328
tp191
sS'wall art fan shop'
p192
(I2
S'home & garden'
p193
F0.793204387135023
tp194
sS'all watches'
p195
(I1
S'watches'
p196
F0.7237558685446009
tp197
sS'minerals'
p198
(I1
S'vitamins & dietary supplements'
p199
F0.7707900207900208
tp200
sS'foot care'
p201
(I1
S'health care'
p202
F0.6494464944649446
tp203
sS'braces & supports'
p204
(I1
S'health care'
p205
F0.5081673306772908
tp206
sS'hair color'
p207
(I1
S'hair care'
p208
F0.9045138888888888
tp209
sS'drills & drivers'
p210
(I1
S'power & hand tools'
p211
F0.9756162915326902
tp212
sS'bathroom vanities'
p213
(I1
S'kitchen & bath fixtures'
p214
F0.8356731195507611
tp215
sS'bags fan shop'
p216
(I2
S'clothing accessories'
p217
F0.4546313799621928
tp218
sS'greenhouses'
p219
(I1
S'gardening'
p220
F0.7365356622998545
tp221
sS'exercise bikes'
p222
(I2
S'winter sports'
p223
F0.710091743119266
tp224
sS'hats & headwear'
p225
(I2
S'accessories'
p226
F0.8910981951667176
tp227
sS'prybars & crowbars'
p228
(I1
S'power & hand tools'
p229
F0.8853658536585366
tp230
sS'indoor fireplaces'
p231
(I1
S'building supplies'
p232
F0.7323420074349443
tp233
sS'fences & trellises'
p234
(I1
S'gardening'
p235
F0.5443037974683544
tp236
sS'candy'
p237
(I1
S'candy & chocolate'
p238
F0.8494915254237289
tp239
sS'ventilation'
p240
(I1
S'building supplies'
p241
F0.49166666666666664
tp242
sS'hardwood & laminate flooring'
p243
(I1
S'building supplies'
p244
F0.9777000437254044
tp245
sS'gloves'
p246
(I2
S'accessories'
p247
F0.8633962264150944
tp248
sS'tires accessories'
p249
(I1
S'motorcycle & powersports'
p250
F0.3993584603047314
tp251
sS'door accessories'
p252
(I1
S'hardware'
p253
F0.8896959913909066
tp254
sS'digestion & nausea'
p255
(I1
S'vitamins & dietary supplements'
p256
F0.566813509544787
tp257
sS'fluids & lubricants'
p258
(I1
S'replacement parts'
p259
F0.48588957055214727
tp260
sS'welding & torches'
p261
(I1
S'power & hand tools'
p262
F0.8197138593873431
tp263
sS'snow removal'
p264
(I1
S'gardening'
p265
F0.5616438356164384
tp266
sS'grease guns'
p267
(I1
S'power & hand tools'
p268
F0.7250996015936255
tp269
sS'mobility aids'
p270
(I1
S'medical supplies & equipment'
p271
F0.5919011306863002
tp272
sS'cookies'
p273
(I1
S'snack foods'
p274
F0.7851690294438386
tp275
sS'baking mixes'
p276
(I1
S'canned dry & packaged foods'
p277
F0.6810089020771514
tp278
sS'ratchets sockets & accessories'
p279
(I1
S'power & hand tools'
p280
F0.9759890235536245
tp281
sS'flashlights'
p282
(I1
S'power & hand tools'
p283
F0.8679767506227511
tp284
sS'water bottles & hydration'
p285
(I2
S'home & garden'
p286
F0.6736353077816493
tp287
sS'lifting equipment'
p288
(I1
S'building supplies'
p289
F0.6390386343216532
tp290
sS'tea'
p291
(I1
S'beverages'
p292
F0.9842022116903634
tp293
sS'nutritional bars & drinks'
p294
(I1
S'vitamins & dietary supplements'
p295
F0.958664546899841
tp296
sS'exterior car decoration'
p297
(I1
S'exterior accessories'
p298
F0.7459396751740139
tp299
sS'hot & cold therapy'
p300
(I1
S'health care'
p301
F0.7700228832951945
tp302
sS'fireplace accessories'
p303
(I1
S'building supplies'
p304
F0.5257142857142857
tp305
sS'lips'
p306
(I2
S'lips'
p307
F0.9495347172512527
tp308
sS'shower & tub modules'
p309
(I1
S'kitchen & bath fixtures'
p310
F0.9461538461538461
tp311
sS'chisels & punches'
p312
(I1
S'power & hand tools'
p313
F0.9305184393372528
tp314
sS'paints & primers'
p315
(I1
S'painting supplies & wall treatments'
p316
F0.8712811171827566
tp317
sS'backpacks'
p318
(I1
S'luggage & bags'
p319
F0.876114726440106
tp320
sS'grills & accessories fan shop'
p321
(I2
S'home & garden'
p322
F0.9038004750593824
tp323
sS'atv accessories'
p324
(I1
S'motorcycle & powersports'
p325
F0.7969625410936704
tp326
sS'automotive repair'
p327
(I1
S'replacement parts'
p328
F0.5926773455377574
tp329
sS'weight plates & racks'
p330
(I2
S'auto accessories'
p331
F0.45985401459854014
tp332
sS'heaters'
p333
(I1
S'building supplies'
p334
F0.7899938233477455
tp335
sS'auto paint & body'
p336
(I2
S'paints & primers'
p337
F0.7670753064798599
tp338
sS'vitamins'
p339
(I1
S'vitamins & dietary supplements'
p340
F0.6410771229479154
tp341
sS'coverings & protection'
p342
(I1
S'exterior accessories'
p343
F0.6135902636916836
tp344
sS'car covers & car protection'
p345
(I1
S'exterior accessories'
p346
F0.6324786324786325
tp347
sS'door security'
p348
(I2
S'door hardware & locks'
p349
F0.8773388773388774
tp350
sS'swimwear'
p351
(I1
S'women'
p352
F0.7421383647798742
tp353
sS'baby clothing'
p354
(I1
S'baby'
p355
F0.81232822928936
tp356
sS'optic accessories'
p357
(I2
S'hunting'
p358
F0.5396959459459459
tp359
sS'patient care'
p360
(I1
S'health care'
p361
F0.4602017937219731
tp362
sS'knives & tools'
p363
(I2
S'hunting'
p364
F0.6826044156939952
tp365
sS'hair treatments'
p366
(I1
S'hair care'
p367
F0.8957983193277311
tp368
sS'outdoor tables'
p369
(I1
S'patio furniture & accessories'
p370
F0.9858038956751403
tp371
sS'sports & duffel bags'
p372
(I1
S'luggage & bags'
p373
F0.9321428571428572
tp374
sS'life vests'
p375
(I3
S'jackets'
p376
F0.5438931297709924
tp377
sS'water pumps'
p378
(I1
S'rough plumbing'
p379
F0.82063305978898
tp380
sS'patio furniture sets'
p381
(I1
S'patio furniture & accessories'
p382
F0.9807130333138515
tp383
sS'coolers'
p384
(I2
S'home & garden'
p385
F0.5304592314901593
tp386
sS'plumbing parts & repair'
p387
(I1
S'rough plumbing'
p388
F0.5330422872795754
tp389
sS'indoor fireplaces & stoves'
p390
(I1
S'building supplies'
p391
F0.6090248802348941
tp392
sS'measuring & layout tools'
p393
(I1
S'power & hand tools'
p394
F0.7121071475931574
tp395
sS'bath faucets'
p396
(I1
S'kitchen & bath fixtures'
p397
F0.8459951565162794
tp398
sS'taps & dies'
p399
(I1
S'power & hand tools'
p400
F0.8870967741935484
tp401
sS'tables'
p402
(I2
S'home & garden'
p403
F0.5799142682180036
tp404
sS'mens shoes'
p405
(I1
S'men'
p406
F0.5346901017576319
tp407
sS'nails'
p408
(I2
S'nails screws & fasteners'
p409
F0.8406546080964685
tp410
sS'baseball training & coaching equipment'
p411
(I2
S'sports & fitness'
p412
F0.42424242424242425
tp413
sS'moisturizers'
p414
(I1
S'skin care'
p415
F0.9568138195777351
tp416
sS'table tennis'
p417
(I3
S'outdoors'
p418
F0.8769470404984424
tp419
sS'air compressor accessories'
p420
(I1
S'power & hand tools'
p421
F0.6528991262907069
tp422
sS'specialty fasteners'
p423
(I1
S'hardware'
p424
F0.42997888810696694
tp425
sS'files & planes'
p426
(I1
S'power & hand tools'
p427
F0.8941580756013746
tp428
sS'trading cards'
p429
(I2
S'sports souvenirs'
p430
F0.9448818897637795
tp431
sS'shower bases doors & walls'
p432
(I1
S'kitchen & bath fixtures'
p433
F0.9460869565217391
tp434
sS'indoor tubs & whirlpools'
p435
(I1
S'kitchen & bath fixtures'
p436
F0.9494674263066634
tp437
sS'gardening tools'
p438
(I1
S'gardening'
p439
F0.8156028368794326
tp440
sS'shampoos'
p441
(I1
S'hair care'
p442
F0.9568987503187962
tp443
sS'sanders & polishers'
p444
(I1
S'power & hand tools'
p445
F0.7325443786982249
tp446
sS'grinders'
p447
(I1
S'power & hand tools'
p448
F0.870940170940171
tp449
sS'gazebos & garden structures'
p450
(I1
S'patio furniture & accessories'
p451
F0.5130984643179766
tp452
sS'lawn mowers'
p453
(I1
S'mowers & outdoor power tools'
p454
F0.522140221402214
tp455
sS'diet foods & drinks'
p456
(I1
S'vitamins & dietary supplements'
p457
F0.8113975576662144
tp458
sS'decorative - exterior'
p459
(I1
S'exterior accessories'
p460
F0.7049214659685864
tp461
sS'all fragrances'
p462
(I1
S'fragrance'
p463
F0.9120033381241597
tp464
sS'facial cleansers'
p465
(I1
S'skin care'
p466
F0.8932676518883416
tp467
sS'safety & protection products'
p468
(I1
S'safety & security'
p469
F0.7959183673469388
tp470
sS'heating'
p471
(I1
S'building supplies'
p472
F0.7660338635197537
tp473
sS'all shirts'
p474
(I1
S'men'
p475
F0.780264496439471
tp476
sS'trailer hitches & towing equipment'
p477
(I1
S'exterior accessories'
p478
F0.6279540850776503
tp479
sS'body repair'
p480
(I1
S'replacement parts'
p481
F0.4295942720763723
tp482
sS'archery & bow accessories'
p483
(I2
S'hunting'
p484
F0.6429765886287625
tp485
sS'first aid'
p486
(I1
S'health care'
p487
F0.9052412356820548
tp488
sS'golf bags & carts'
p489
(I2
S'winter sports'
p490
F0.8167701863354038
tp491
sS'water storage & treatments'
p492
(I1
S'building supplies'
p493
F0.4364820846905538
tp494
sS'oil filters'
p495
(I1
S'replacement parts'
p496
F0.5479041916167665
tp497
sS'trampolines'
p498
(I2
S'toys & hobbies'
p499
F0.943796394485684
tp500
sS'other fan shop'
p501
(I2
S'home & garden'
p502
F0.5532759266192437
tp503
sS'outdoor lighting'
p504
(I1
S'outdoor decor'
p505
F0.8691746209994385
tp506
sS'table top & multi-game tables'
p507
(I2
S'toys & hobbies'
p508
F0.6633245382585752
tp509
sS'auto repair tools'
p510
(I1
S'replacement parts'
p511
F0.5768847558950515
tp512
sS'scales'
p513
(I1
S'health care'
p514
F0.6832229580573952
tp515
sS'bedding fan shop'
p516
(I2
S'home & garden'
p517
F0.9915470494417863
tp518
sS'screwdrivers'
p519
(I1
S'power & hand tools'
p520
F0.9591608391608392
tp521
sS'vinyl flooring'
p522
(I1
S'building supplies'
p523
F0.9857868020304569
tp524
sS'bench saws'
p525
(I1
S'power & hand tools'
p526
F0.8190661478599222
tp527
sS'portable saws'
p528
(I1
S'power & hand tools'
p529
F0.9574759945130316
tp530
sS'bath sinks'
p531
(I1
S'kitchen & bath fixtures'
p532
F0.9972041006523765
tp533
sS'wrenches & ratchets'
p534
(I1
S'power & hand tools'
p535
F0.928698752228164
tp536
sS'pliers'
p537
(I1
S'power & hand tools'
p538
F0.9693415089309517
tp539
sS'cough cold & flu'
p540
(I1
S'health care'
p541
F0.6911519198664441
tp542
sS'all activewear'
p543
(I1
S'women'
p544
F0.5054678007290401
tp545
sS'indoor seasonal decor fan shop'
p546
(I2
S'home & garden'
p547
F0.8253205128205128
tp548
sS'womens shoes'
p549
(I1
S'women'
p550
F0.8946520618556701
tp551
sS'umbrellas'
p552
(I1
S'luggage & bags'
p553
F0.8347978910369068
tp554
sS'outdoor power equipment'
p555
(I1
S'mowers & outdoor power tools'
p556
F0.5911401597676107
tp557
sS'handbags'
p558
(I1
S'luggage & bags'
p559
F0.5971621771422237
tp560
sS'hammers mallets & sledges'
p561
(I1
S'power & hand tools'
p562
F0.9054140127388535
tp563
sS'eye care'
p564
(I1
S'personal care'
p565
F0.5089605734767025
tp566
sS'watering'
p567
(I1
S'gardening'
p568
F0.8320436959490214
tp569
sS'gun accessories'
p570
(I2
S'hunting'
p571
F0.5212735981966751
tp572
sS'kitchen sinks'
p573
(I1
S'kitchen & bath fixtures'
p574
F0.9834373499759962
tp575
sS'all tops'
p576
(I1
S'women'
p577
F0.74243399871217
tp578
sS'clothing fan shop'
p579
(I2
S'clothing'
p580
F0.7476600524148259
tp581
sS'hair styling tools'
p582
(I1
S'hair care'
p583
F0.9536945812807882
tp584
sS'car floor mats & cargo mats'
p585
(I2
S'floor mats & cargo liners'
p586
F0.9897192566231712
tp587
sS'removal tools'
p588
(I1
S'power & hand tools'
p589
F0.9366993217784476
tp590
sS'rugs fan shop'
p591
(I2
S'home & garden'
p592
F0.9236453201970444
tp593
sS'eyes'
p594
(I2
S'eyes'
p595
F0.9303246239113222
tp596
sS'outdoor decor fan shop'
p597
(I2
S'home & garden'
p598
F0.7975671750181554
tp599
sS'conditioners'
p600
(I1
S'hair care'
p601
F0.9626168224299065
tp602
sS'bedroom aids & safety'
p603
(I1
S'health care'
p604
F0.6455906821963394
tp605
sS'shoes fan shop'
p606
(I2
S'footwear'
p607
F0.7516129032258064
tp608
sS'gardening accessories'
p609
(I1
S'gardening'
p610
F0.8637873754152824
tp611
sS'tool storage'
p612
(I1
S'power & hand tools'
p613
F0.5213079603323506
tp614
sS'hand saws'
p615
(I1
S'power & hand tools'
p616
F0.9601542416452442
tp617
sS'beauty tools & accessories'
p618
(I1
S'tools & accessories'
p619
F0.4786088027085257
tp620
sS'hair brushes & styling accessories'
p621
(I1
S'hair care'
p622
F0.8084714548802947
tp623
sS'body treatments'
p624
(I1
S'skin care'
p625
F0.931113662456946
tp626
sS'styling products'
p627
(I1
S'hair care'
p628
F0.8723143032535298
tp629
sS'facial treatments'
p630
(I1
S'skin care'
p631
F0.9421265141318977
tp632
sS'ceramic tile'
p633
(I1
S'building supplies'
p634
F0.9531600598354525
tp635
sS'molding trim'
p636
(I1
S'building supplies'
p637
F0.9303609341825902
tp638
sS'fountains & ponds'
p639
(I1
S'outdoor decor'
p640
F0.6302454473475851
tp641
sS'pots & planters'
p642
(I1
S'gardening'
p643
F0.9270660667771726
tp644
sS'oral accessories'
p645
(I1
S'personal care'
p646
F0.7872996300863132
tp647
sS'hand creams & lotions'
p648
(I1
S'skin care'
p649
F0.9436186570989237
tp650
sS'auto safety accessories'
p651
(I1
S'replacement parts'
p652
F0.3702770780856423
tp653
sS'air filters'
p654
(I1
S'building supplies'
p655
F0.7764550264550265
tp656
sS'gun sights'
p657
(I2
S'hunting'
p658
F0.8007246376811594
tp659
sS'gun cases & bags'
p660
(I2
S'hunting'
p661
F0.6375719982277359
tp662
sS'electronics fan shop'
p663
(I2
S'cell phone accessories'
p664
F0.5272898368883312
tp665
sS'drill & router bits'
p666
(I1
S'power & hand tools'
p667
F0.9420592705167173
tp668
sS'hitching & towing'
p669
(I1
S'exterior accessories'
p670
F0.8749741254398675
tp671
sS'crackers'
p672
(I1
S'snack foods'
p673
F0.8808618504435995
tp674
sS'additional auto replacement parts'
p675
(I1
S'replacement parts'
p676
F0.9726166328600405
tp677
sS'cutting tools'
p678
(I1
S'power & hand tools'
p679
F0.8892114175133043
tp680
sS'furniture fan shop'
p681
(I2
S'sports souvenirs'
p682
F0.48890311566367906
tp683
sS'hand wrenches'
p684
(I1
S'power & hand tools'
p685
F0.9713740458015268
tp686
sS'fans'
p687
(I1
S'lighting & ceiling fans'
p688
F0.5996451803666469
tp689
sS'paint tools & supplies'
p690
(I1
S'painting supplies & wall treatments'
p691
F0.551094890510949
tp692
sS'other flooring'
p693
(I1
S'building supplies'
p694
F0.7072599531615925
tp695
sS'light bulbs'
p696
(I1
S'electrical'
p697
F0.9025416869030274
tp698
sS'juice'
p699
(I1
S'beverages'
p700
F0.8691037735849056
tp701
sS'kitchen faucets'
p702
(I1
S'kitchen & bath fixtures'
p703
F0.8690095846645367
tp704
sS'screws'
p705
(I2
S'nails screws & fasteners'
p706
F0.8242159008023341
tp707
sS'decorative accessories fan shop'
p708
(I2
S'home & garden'
p709
F0.4817799879962274
tp710
sS'bathroom aids & safety'
p711
(I1
S'health care'
p712
F0.4966442953020134
tp713
sS'lighting fan shop'
p714
(I2
S'home & garden'
p715
F0.8317483540599854
tp716
sS'wind chimes & flags'
p717
(I1
S'outdoor decor'
p718
F0.9551189245087901
tp719
sS'umbrellas & bases'
p720
(I1
S'patio furniture & accessories'
p721
F0.9854636591478697
tp722
sS'body cleansers'
p723
(I1
S'bath & body'
p724
F0.6624940954180444
tp725
sS'sleepwear & robes'
p726
(I1
S'women'
p727
F0.7507692307692307
tp728
sS'window hardware'
p729
(I1
S'hardware'
p730
F0.7201907790143084
tp731
sS'interior car accessories'
p732
(I1
S'replacement parts'
p733
F0.5466237942122186
tp734
sS'billiards'
p735
(I2
S'toys & game room'
p736
F0.7462745098039215
tp737
sS'baseball mitts & gloves'
p738
(I2
S'sports & fitness'
p739
F0.9842931937172775
tp740
sS'feminine care'
p741
(I1
S'personal care'
p742
F0.5499276410998553
tp743
sS'supplements'
p744
(I1
S'vitamins & dietary supplements'
p745
F0.6044568245125348
tp746
sS'sauces'
p747
(I1
S'pantry staples'
p748
F0.7297297297297297
tp749
sS'doors'
p750
(I2
S'door hardware & locks'
p751
F0.8640132669983416
tp752
sS'fertilizer & soil'
p753
(I1
S'gardening'
p754
F0.9551066217732884
tp755
sS'bath accessories'
p756
(I2
S'body'
p757
F0.6050955414012739
tp758
sS'shower heads'
p759
(I1
S'kitchen & bath fixtures'
p760
F0.9515124555160143
tp761
sS'night vision & monoculars'
p762
(I2
S'hunting'
p763
F0.8119122257053292
tp764
sS'dresses'
p765
(I1
S'women'
p766
F0.8427518427518428
tp767
sS'chisels & gouges'
p768
(I1
S'power & hand tools'
p769
F0.8835877862595419
tp770
sS'other home improvement'
p771
(I1
S'lighting & ceiling fans'
p772
F0.35467980295566504
tp773
sS'tool belts'
p774
(I1
S'power & hand tools'
p775
F0.6968641114982579
tp776
sS'sports equipment fan shop'
p777
(I2
S'sports equipment'
p778
F0.7383488681757656
tp779
sS'incontinence'
p780
(I1
S'health care'
p781
F0.8216216216216217
tp782
sS'clocks fan shop'
p783
(I2
S'home & garden'
p784
F0.9945054945054945
tp785
sS'tool sets'
p786
(I1
S'power & hand tools'
p787
F0.7180774748923959
tp788
sS'herbals'
p789
(I1
S'vitamins & dietary supplements'
p790
F0.5383631713554987
tp791
sS'spark plugs'
p792
(I1
S'replacement parts'
p793
F0.9550930996714129
tp794
sS'binoculars'
p795
(I2
S'hunting'
p796
F0.9057507987220448
tp797
sS'jewelry storage'
p798
(I2
S'jewelry boxes & organizers'
p799
F0.9282051282051282
tp800
sS'car seat covers'
p801
(I2
S'seat covers & accessories'
p802
F0.665031534688157
tp803
sS'wallpaper & accessories'
p804
(I1
S'painting supplies & wall treatments'
p805
F0.7599206349206349
tp806
sS'darts'
p807
(I2
S'toys & game room'
p808
F0.6441947565543071
tp809
sS'wheelchairs'
p810
(I1
S'medical supplies & equipment'
p811
F0.8632958801498127
tp812
sS'daily living aids'
p813
(I1
S'health care'
p814
F0.5447402880838061
tp815
sS'cargo management system'
p816
(I2
S'decals & bumper stickers'
p817
F0.6202651515151515
tp818
sS'car lighting'
p819
(I2
S'lights & lighting accessories'
p820
F0.9287925696594427
tp821
sS'jewelry fan shop'
p822
(I2
S'jewelry & watches'
p823
F0.5509872241579559
tp824
sS'abrasives'
p825
(I1
S'power & hand tools'
p826
F0.8462862438766053
tp827
sS'camping fan shop'
p828
(I2
S'gameday & tailgating'
p829
F0.4329268292682927
tp830
sS'garden statues & accents'
p831
(I1
S'outdoor decor'
p832
F0.6891776995020041
tp833
sS'bath fan shop'
p834
(I2
S'home & garden'
p835
F0.6471371504660453
tp836
sS'jointers & planers'
p837
(I1
S'power & hand tools'
p838
F0.6014492753623188
tp839
sS'sun care'
p840
(I1
S'skin care'
p841
F0.9490316004077471
tp842
sS'floor & cargo mats'
p843
(I2
S'floor mats & cargo liners'
p844
F0.9923422233958278
tp845
sS'automotive electrical'
p846
(I2
S'lighting & electrical'
p847
F0.6379769299023957
tp848
sS'air purifiers'
p849
(I1
S'building supplies'
p850
F0.4394057857701329
tp851
sS'face'
p852
(I2
S'face'
p853
F0.9760087241003271
tp854
sS'mailboxes & address plaques'
p855
(I1
S'hardware'
p856
F0.9360505973295854
tp857
sS'air compressors'
p858
(I1
S'power & hand tools'
p859
F0.71168
tp860
sS'fire safety'
p861
(I1
S'safety & security'
p862
F0.6412478336221837
tp863
sS'dartboards'
p864
(I2
S'toys & game room'
p865
F0.5287671232876713
tp866
sS'paint sprayers'
p867
(I1
S'painting supplies & wall treatments'
p868
F0.5394126738794436
tp869
sS'rifle scopes'
p870
(I2
S'hunting'
p871
F0.9272892524426267
tp872
sS'lawn games'
p873
(I2
S'toys & hobbies'
p874
F0.5022590361445783
tp875
sS'bird baths & feeders'
p876
(I1
S'gardening'
p877
F0.6826202029113365
tp878
sS'ramps lifts and jacks'
p879
(I2
S'shocks struts & suspension'
p880
F0.4850340136054422
tp881
sa.