(lp0
(dp1
S'everything else'
p2
(I1
S'fan shop'
p3
F0.7325102880658436
F0.7471910112359551
tp4
sS'grocery'
p5
(I0
S'grocery & gourmet food'
p6
F0.6132221560452651
F0.8374125874125874
tp7
sS'jewelry'
p8
(I0
S'jewelry'
p9
F0.789303826648225
F0.9480724299065421
tp10
sS'beauty'
p11
(I0
S'beauty'
p12
F0.8891477730979478
F0.9362023785527112
tp13
sS'cell phones'
p14
(I2
S'audio & video accessories'
p15
F0.9116491117748782
F0.9715468184169684
tp16
sS'patio & garden'
p17
(I0
S'patio lawn & garden'
p18
F0.4576048951048951
F0.789534725064811
tp19
sS'toys'
p20
(I1
S'hobbies'
p21
F0.38982683396113926
F0.5335418839068474
tp22
sS'home improvement'
p23
(I0
S'tools & home improvement'
p24
F0.6638346665703606
F0.8121591295477729
tp25
sS'apparel'
p26
(I0
S'clothing & accessories'
p27
F0.5383449147188882
F0.826331846984276
tp28
sS'auto & tires'
p29
(I0
S'automotive'
p30
F0.6935809446911586
F0.8929818726093464
tp31
sS'health'
p32
(I0
S'health & personal care'
p33
F0.6625541343539127
F0.8238200197613438
tp34
sS'pets'
p35
(I0
S'pet supplies'
p36
F0.6866620831900997
F0.848811013767209
tp37
sS'party & occasions'
p38
(I0
S'home & kitchen'
p39
F0.4338486842105263
F0.8459827634139561
tp40
sS'baby'
p41
(I0
S'baby products'
p42
F0.39188864890808733
F0.7330067360685855
tp43
sS'home'
p44
(I0
S'home & kitchen'
p45
F0.6594324552191341
F0.8704136736032838
tp46
sS'electronics'
p47
(I3
S'cables & interconnects'
p48
F0.6569634805726706
F0.6527992343974298
tp49
sS'clothing'
p50
(I1
S'luggage & bags'
p51
F0.6027596223674655
F0.944578313253012
tp52
sS'sports & outdoors'
p53
(I1
S'fan shop'
p54
F0.7457527756508423
F0.9339675613238574
tp55
sa(dp56
S'kids storage'
p57
(I2
S'other furniture'
p58
F0.7534722222222222
F0.7741935483870968
tp59
sS'giftwrap & supplies'
p60
(I2
S'home decor accents'
p61
F0.9827387802071347
F0.8875878220140515
tp62
sS'car battery chargers & accessories'
p63
(I1
S'replacement parts'
p64
F0.8636363636363636
F0.868421052631579
tp65
sS'hooks'
p66
(I2
S'cabinet hardware'
p67
F0.6352723915050785
F0.813953488372093
tp68
sS'ladders'
p69
(I1
S'building supplies'
p70
F0.9198966408268734
F0.8932584269662921
tp71
sS'indoor fireplaces & stoves'
p72
(I1
S'building supplies'
p73
F0.6068580542264753
F0.7680683311432326
tp74
sS'ceiling fixtures'
p75
(I1
S'home decor'
p76
F0.8688916876574307
F0.7843165676184954
tp77
sS'briefcases'
p78
(I1
S'luggage & bags'
p79
F0.9086294416243654
F0.9720670391061452
tp80
sS'blood pressure monitors'
p81
(I1
S'medical supplies & equipment'
p82
F0.8832335329341318
F0.9830508474576272
tp83
sS'home security'
p84
(I1
S'safety & security'
p85
F0.36538461538461536
F0.7744360902255639
tp86
sS'massage equipment'
p87
(I1
S'skin care'
p88
F0.8
F0.8010204081632653
tp89
sS'shower curtains'
p90
(I1
S'bath'
p91
F0.9803921568627451
F0.9964705882352941
tp92
sS'chisels & punches'
p93
(I1
S'power & hand tools'
p94
F0.9275956284153005
F0.9248895434462445
tp95
sS'interior lamps'
p96
(I1
S'home decor'
p97
F0.8760387811634349
F0.7720685111989459
tp98
sS'toilet lids & seats'
p99
(I1
S'kitchen & bath fixtures'
p100
F0.9140518417462483
F0.9343283582089552
tp101
sS'bed pillows'
p102
(I2
S'decorative pillows inserts & covers'
p103
F0.8623629719853837
F0.9491525423728814
tp104
sS'halloween wigs'
p105
(I2
S'home decor accents'
p106
F0.9955357142857143
F0.9708520179372198
tp107
sS'automotive electrical'
p108
(I2
S'lighting & electrical'
p109
F0.6262057877813505
F0.5866495507060334
tp110
sS'life vests'
p111
(I2
S'clothing'
p112
F0.7948717948717948
F0.7032258064516129
tp113
sS'minerals'
p114
(I1
S'vitamins & dietary supplements'
p115
F0.7837338262476895
F0.9127358490566038
tp116
sS'foot care'
p117
(I1
S'health care'
p118
F0.6784140969162996
F0.7792207792207793
tp119
sS'braces & supports'
p120
(I1
S'health care'
p121
F0.5223260643821391
F0.7773359840954275
tp122
sS'hats & headwear'
p123
(I3
S'hats & caps'
p124
F0.9458823529411765
F0.8913764510779436
tp125
sS'patio furniture sets'
p126
(I1
S'patio furniture & accessories'
p127
F0.9793340987370838
F0.9890582258694802
tp128
sS'bedroom sets'
p129
(I2
S'bedroom furniture'
p130
F0.7075055187637969
F0.9360374414976599
tp131
sS'trash cans & recycle bins'
p132
(I1
S'storage & organization'
p133
F0.7679372197309418
F0.8656934306569343
tp134
sS'chains ropes & tiedowns'
p135
(I2
S'door hardware & locks'
p136
F0.46320346320346323
F0.5906542056074766
tp137
sS'digestion & nausea'
p138
(I1
S'vitamins & dietary supplements'
p139
F0.5793650793650794
F0.8424657534246576
tp140
sS'cookies'
p141
(I1
S'snack foods'
p142
F0.877906976744186
F0.9271523178807947
tp143
sS'flashlights'
p144
(I1
S'power & hand tools'
p145
F0.881638846737481
F0.9294320137693631
tp146
sS'tea'
p147
(I1
S'beverages'
p148
F0.9877551020408163
F0.9834710743801653
tp149
sS'hot & cold therapy'
p150
(I1
S'health care'
p151
F0.7612903225806451
F0.8347457627118644
tp152
sS'oral accessories'
p153
(I1
S'personal care'
p154
F0.7886855241264559
F0.8945147679324894
tp155
sS'paints & primers'
p156
(I1
S'painting supplies & wall treatments'
p157
F0.8964968152866242
F0.8028419182948491
tp158
sS'griddles & skillets'
p159
(I1
S'kitchen & dining'
p160
F0.875
F0.9033613445378151
tp161
sS'wall fixtures'
p162
(I1
S'home decor'
p163
F0.8630755864465682
F0.9438292732031407
tp164
sS'atv accessories'
p165
(I1
S'motorcycle & powersports'
p166
F0.7971570539027611
F0.8784913997159539
tp167
sS'paintings'
p168
(I2
S'home decor accents'
p169
F0.8899082568807339
F0.8247422680412371
tp170
sS'gun cases & bags'
p171
(I2
S'sports souvenirs'
p172
F0.36013986013986016
F0.5954692556634305
tp173
sS'water pumps'
p174
(I1
S'rough plumbing'
p175
F0.8178807947019867
F0.8259109311740891
tp176
sS'plumbing parts & repair'
p177
(I1
S'rough plumbing'
p178
F0.5320796460176991
F0.8332640332640333
tp179
sS'moisturizers'
p180
(I1
S'skin care'
p181
F0.9487179487179487
F0.9540540540540541
tp182
sS'decorative magnets stickers & window clings'
p183
(I2
S'kitchen utensils & gadgets'
p184
F0.7782608695652173
F0.9162011173184358
tp185
sS'trading cards'
p186
(I2
S'sports souvenirs'
p187
F0.9517543859649122
F0.9170506912442397
tp188
sS'tv stands'
p189
(I1
S'furniture'
p190
F0.9776813391196528
F0.9809765377298668
tp191
sS'curtain rods & holdbacks'
p192
(I1
S'home decor'
p193
F0.9202279202279202
F0.9298245614035088
tp194
sS'bar & wine accessories'
p195
(I1
S'kitchen & dining'
p196
F0.8873744619799139
F0.9361358124494745
tp197
sS'indoor tubs & whirlpools'
p198
(I1
S'kitchen & bath fixtures'
p199
F0.9468629961587708
F0.9945909398242055
tp200
sS'gardening tools'
p201
(I1
S'gardening'
p202
F0.82
F0.7770034843205574
tp203
sS'window coverings'
p204
(I2
S'window treatments'
p205
F0.9854227405247813
F0.9911242603550295
tp206
sS'ceramics & pottery'
p207
(I2
S'home decor accents'
p208
F0.973305954825462
F0.9409282700421941
tp209
sS'pressure washers'
p210
(I1
S'power & hand tools'
p211
F0.4110854503464203
F0.550561797752809
tp212
sS'all bracelets'
p213
(I2
S'bangle'
p214
F0.4846909300982091
F0.822010329757648
tp215
sS'body repair'
p216
(I1
S'replacement parts'
p217
F0.41163793103448276
F0.675392670157068
tp218
sS'supplements'
p219
(I1
S'vitamins & dietary supplements'
p220
F0.5994962216624685
F0.8445378151260504
tp221
sS'headboards'
p222
(I2
S'bedroom furniture'
p223
F0.9926900584795322
F0.9867452135493373
tp224
sS'framed wall art'
p225
(I1
S'artwork'
p226
F0.687199230028874
F0.896358543417367
tp227
sS'cutting tools'
p228
(I1
S'power & hand tools'
p229
F0.8998664886515354
F0.884272997032641
tp230
sS'prints'
p231
(I1
S'artwork'
p232
F0.5762293056585125
F0.9309605488850772
tp233
sS'office chairs'
p234
(I1
S'furniture'
p235
F0.99800796812749
F0.9984031936127744
tp236
sS'scales'
p237
(I1
S'health care'
p238
F0.6829971181556196
F0.7215189873417721
tp239
sS'kids rugs'
p240
(I2
S'area rugs & pads'
p241
F0.9988558352402745
F0.997709049255441
tp242
sS'baking & pastry tools'
p243
(I1
S'kitchen & dining'
p244
F0.8214783821478382
F0.9032258064516129
tp245
sS'vinyl flooring'
p246
(I1
S'building supplies'
p247
F0.9842105263157894
F0.9625668449197861
tp248
sS'portable saws'
p249
(I1
S'power & hand tools'
p250
F0.951278928136419
F0.93854033290653
tp251
sS'bath sinks'
p252
(I1
S'kitchen & bath fixtures'
p253
F0.9975339087546239
F0.9950556242274413
tp254
sS'all activewear'
p255
(I1
S'women'
p256
F0.5210355987055016
F0.9503105590062112
tp257
sS'outdoor power equipment'
p258
(I1
S'mowers & outdoor power tools'
p259
F0.5818505338078291
F0.8134556574923547
tp260
sS'handbags'
p261
(I1
S'luggage & bags'
p262
F0.5991097922848665
F0.8999504705299654
tp263
sS'lockers'
p264
(I2
S'home decor accents'
p265
F0.6771004942339374
F0.5790754257907542
tp266
sS'watering'
p267
(I1
S'gardening'
p268
F0.8305288461538461
F0.8285094066570188
tp269
sS'removal tools'
p270
(I1
S'power & hand tools'
p271
F0.9436619718309859
F0.9658848614072495
tp272
sS'refrigerators and freezers'
p273
(I1
S'kitchen & dining'
p274
F0.8033333333333333
F0.8381742738589212
tp275
sS'kids crafts'
p276
(I2
S'home decor accents'
p277
F0.9739130434782609
F0.9241071428571429
tp278
sS'conditioners'
p279
(I1
S'hair care'
p280
F0.9629629629629629
F0.993006993006993
tp281
sS'gardening accessories'
p282
(I1
S'gardening'
p283
F0.8548387096774194
F0.8915094339622641
tp284
sS'cookware'
p285
(I2
S'home & garden'
p286
F0.6570048309178744
F0.5
tp287
sS'hand saws'
p288
(I1
S'power & hand tools'
p289
F0.95
F0.9736842105263158
tp290
sS'laundry organization'
p291
(I1
S'storage & organization'
p292
F0.5918744228993537
F0.7566302652106084
tp293
sS'kids desks & chairs'
p294
(I1
S'furniture'
p295
F0.9088541666666666
F0.9484240687679083
tp296
sS'shower & tub modules'
p297
(I1
S'kitchen & bath fixtures'
p298
F0.9517241379310345
F0.9746376811594203
tp299
sS'plant stands & telephone tables'
p300
(I2
S'home decor accents'
p301
F0.9953488372093023
F0.985981308411215
tp302
sS'crackers'
p303
(I1
S'snack foods'
p304
F0.9238410596026491
F0.899641577060932
tp305
sS'outdoor lighting'
p306
(I1
S'outdoor decor'
p307
F0.8634927322519486
F0.9009514515735545
tp308
sS'furniture fan shop'
p309
(I2
S'sports souvenirs'
p310
F0.5273348519362187
F0.9481641468682506
tp311
sS'barstools & counter stools'
p312
(I1
S'furniture'
p313
F0.9982358129961776
F0.9944035346097202
tp314
sS'mirrors'
p315
(I2
S'home decor accents'
p316
F0.9615610328638498
F0.9447665547757095
tp317
sS'wreaths & garland'
p318
(I1
S'seasonal decor'
p319
F0.7258527255339496
F0.95344751866491
tp320
sS'trailer hitches & towing equipment'
p321
(I1
S'exterior accessories'
p322
F0.6162162162162163
F0.9035087719298246
tp323
sS'scrapbooking & paper crafts'
p324
(I2
S'home decor accents'
p325
F0.9641849359670067
F0.929648806843764
tp326
sS'lighting fan shop'
p327
(I2
S'home & garden'
p328
F0.9227941176470589
F0.8904382470119522
tp329
sS'food storage'
p330
(I1
S'kitchen & dining'
p331
F0.8711433756805808
F0.9119791666666667
tp332
sS'shelving'
p333
(I2
S'other furniture'
p334
F0.8496634255796559
F0.9313380281690141
tp335
sS'room dividers'
p336
(I1
S'furniture'
p337
F0.9203869047619048
F0.9595796281325788
tp338
sS'wind chimes & flags'
p339
(I1
S'outdoor decor'
p340
F0.9584905660377359
F0.9673790776152981
tp341
sS'brooches & pins'
p342
(I1
S'novelty & more'
p343
F0.7282608695652174
F0.7134328358208956
tp344
sS'indoor holiday decor'
p345
(I2
S'home decor accents'
p346
F0.93790546802595
F0.9671442687747036
tp347
sS'fertilizer & soil'
p348
(I1
S'gardening'
p349
F0.9571865443425076
F0.939297124600639
tp350
sS'bath accessories'
p351
(I1
S'skin care'
p352
F0.40625
F0.7538461538461538
tp353
sS'decorative accents'
p354
(I2
S'home decor accents'
p355
F0.9860953103273923
F0.9773106012049737
tp356
sS'vacuums and floor care'
p357
(I2
S'storage & organization'
p358
F0.6522435897435898
F0.8452088452088452
tp359
sS'herbals'
p360
(I1
S'vitamins & dietary supplements'
p361
F0.5333333333333333
F0.9078947368421053
tp362
sS'spark plugs'
p363
(I1
S'replacement parts'
p364
F0.9674556213017751
F0.9571865443425076
tp365
sS'car seat covers'
p366
(I1
S'interior accessories'
p367
F0.6772983114446529
F0.5955678670360111
tp368
sS'vases'
p369
(I2
S'home decor accents'
p370
F0.9839486356340289
F0.9891245241979336
tp371
sS'toasters & ovens'
p372
(I1
S'kitchen & dining'
p373
F0.9806201550387597
F0.9841897233201581
tp374
sS'cargo management system'
p375
(I2
S'decals & bumper stickers'
p376
F0.5978835978835979
F0.7699115044247787
tp377
sS'womens halloween costumes'
p378
(I2
S'home decor accents'
p379
F1.0
F0.975
tp380
sS'oil filters'
p381
(I1
S'replacement parts'
p382
F0.5422535211267606
F0.8961038961038961
tp383
sS'indoor halloween decor'
p384
(I2
S'home decor accents'
p385
F0.8434782608695652
F0.9329896907216495
tp386
sS'garden statues & accents'
p387
(I1
S'outdoor decor'
p388
F0.6851145038167938
F0.8918291550603529
tp389
sS'jointers & planers'
p390
(I1
S'power & hand tools'
p391
F0.579088471849866
F0.8055555555555556
tp392
sS'deodorants & antiperspirant'
p393
(I1
S'personal care'
p394
F0.9656862745098039
F0.9695431472081218
tp395
sS'fire safety'
p396
(I1
S'safety & security'
p397
F0.6454545454545455
F0.7605633802816901
tp398
sS'bird baths & feeders'
p399
(I1
S'gardening'
p400
F0.6883933676386507
F0.696843853820598
tp401
sS'pans'
p402
(I1
S'kitchen & dining'
p403
F0.991869918699187
F0.9740437158469946
tp404
sS'hardwood & laminate flooring'
p405
(I1
S'building supplies'
p406
F0.9801864801864801
F0.9548156956004756
tp407
sS'safety equipment & gear'
p408
(I1
S'safety & security'
p409
F0.7032814238042269
F0.8517200474495848
tp410
sS'braces & straps'
p411
(I2
S'door hardware & locks'
p412
F0.6865671641791045
F0.8115942028985508
tp413
sS'baby clothing'
p414
(I1
S'baby'
p415
F0.8162859980139027
F0.8114355231143552
tp416
sS'hammocks & swings'
p417
(I1
S'patio furniture & accessories'
p418
F0.9664310954063604
F0.9780621572212066
tp419
sS'shower bases doors & walls'
p420
(I1
S'kitchen & bath fixtures'
p421
F0.9617224880382775
F0.9751243781094527
tp422
sS'massagers'
p423
(I1
S'skin care'
p424
F0.4388185654008439
F0.7307692307692307
tp425
sS'giftwrap'
p426
(I2
S'home decor accents'
p427
F0.9888888888888889
F0.8820224719101124
tp428
sS'kitchen & dining chairs'
p429
(I1
S'furniture'
p430
F0.9941520467836257
F0.9970588235294118
tp431
sS'accessories fan shop'
p432
(I2
S'clothing accessories'
p433
F0.3629160063391442
F0.8558951965065502
tp434
sS'decorative door hardware'
p435
(I1
S'hardware'
p436
F0.9104693140794223
F0.9466032249537404
tp437
sS'toys & games fan shop'
p438
(I2
S'home & garden'
p439
F0.42083040112596765
F0.5016722408026756
tp440
sS'coffee'
p441
(I1
S'beverages'
p442
F0.9853181076672104
F0.9900662251655629
tp443
sS'dimmers switches & wall plates'
p444
(I1
S'electrical'
p445
F0.5582349923037455
F0.6957720588235294
tp446
sS'coffee tea and espresso'
p447
(I1
S'kitchen & dining'
p448
F0.9158798283261803
F0.922211808809747
tp449
sS'sandpaper'
p450
(I1
S'power & hand tools'
p451
F0.8952042628774423
F0.8849206349206349
tp452
sS'dinnerware'
p453
(I2
S'tabletop'
p454
F0.9681603773584906
F0.9707673568818515
tp455
sS'bathroom furniture'
p456
(I1
S'bath'
p457
F0.6498572787821123
F0.8872620790629575
tp458
sS'fitness balls'
p459
(I2
S'sports equipment'
p460
F0.612987012987013
F0.7033898305084746
tp461
sS'runners'
p462
(I2
S'area rugs & pads'
p463
F1.0
F1.0
tp464
sS'greenhouses'
p465
(I1
S'gardening'
p466
F0.7185185185185186
F0.5979381443298969
tp467
sS'indoor fireplaces'
p468
(I1
S'building supplies'
p469
F0.7510791366906475
F0.8103448275862069
tp470
sS'fences & trellises'
p471
(I1
S'gardening'
p472
F0.5393258426966292
F0.7083333333333334
tp473
sS'ventilation'
p474
(I1
S'building supplies'
p475
F0.4879725085910653
F0.7887323943661971
tp476
sS'gazebos & garden structures'
p477
(I1
S'patio furniture & accessories'
p478
F0.4855072463768116
F0.8407960199004975
tp479
sS'snow removal'
p480
(I1
S'gardening'
p481
F0.6006825938566553
F0.5568181818181818
tp482
sS'bathroom accessories'
p483
(I1
S'bath'
p484
F0.5603180089872105
F0.9019123997532388
tp485
sS'mobility aids'
p486
(I1
S'medical supplies & equipment'
p487
F0.6041666666666666
F0.8517241379310345
tp488
sS'entertainment centers'
p489
(I1
S'furniture'
p490
F0.9927797833935018
F0.9818181818181818
tp491
sS'backpacks'
p492
(I1
S'luggage & bags'
p493
F0.8708860759493671
F0.9578488372093024
tp494
sS'grills & accessories fan shop'
p495
(I2
S'home & garden'
p496
F0.9686520376175548
F0.8932038834951457
tp497
sS'kitchen sinks'
p498
(I1
S'kitchen & bath fixtures'
p499
F0.9816455696202532
F0.9825918762088974
tp500
sS'other arts & crafts'
p501
(I1
S'artwork'
p502
F0.747082360786929
F0.932827493862977
tp503
sS'dutch ovens & roasters'
p504
(I1
S'kitchen & dining'
p505
F0.9850746268656716
F0.9747474747474747
tp506
sS'greeting cards & invitations'
p507
(I2
S'home decor accents'
p508
F0.9493670886075949
F0.8533333333333334
tp509
sS'holiday lighting'
p510
(I1
S'seasonal decor'
p511
F0.8113948919449901
F0.9346246973365617
tp512
sS'sports nutrition'
p513
(I1
S'vitamins & dietary supplements'
p514
F0.8388888888888889
F0.9249448123620309
tp515
sS'serveware'
p516
(I1
S'kitchen & dining'
p517
F0.8995417694747974
F0.908307210031348
tp518
sS'prybars & crowbars'
p519
(I1
S'power & hand tools'
p520
F0.8657718120805369
F0.8604651162790697
tp521
sS'coolers'
p522
(I2
S'home & garden'
p523
F0.975669099756691
F0.9750623441396509
tp524
sS'baseball mitts & gloves'
p525
(I2
S'sports equipment'
p526
F0.6696428571428571
F0.82
tp527
sS'measuring & layout tools'
p528
(I1
S'power & hand tools'
p529
F0.7108391608391609
F0.6935563207083129
tp530
sS'mens shoes'
p531
(I1
S'men'
p532
F0.5261904761904762
F0.9004524886877828
tp533
sS'table tennis'
p534
(I2
S'home & garden'
p535
F0.8407407407407408
F0.8942731277533039
tp536
sS'party tableware'
p537
(I1
S'kitchen & dining'
p538
F0.810126582278481
F0.9114583333333334
tp539
sS'body treatments'
p540
(I1
S'skin care'
p541
F0.9154518950437318
F0.9585987261146497
tp542
sS'decorative - exterior'
p543
(I1
S'exterior accessories'
p544
F0.7110621904237755
F0.9736842105263158
tp545
sS'all fragrances'
p546
(I1
S'fragrance'
p547
F0.9149567367119901
F0.9415022966765739
tp548
sS'surface protectors'
p549
(I1
S'hardware'
p550
F0.38839285714285715
F0.6781609195402298
tp551
sS'baskets & bins'
p552
(I2
S'home decor accents'
p553
F0.9418604651162791
F0.9253380364491476
tp554
sS'water storage & treatments'
p555
(I1
S'building supplies'
p556
F0.41841004184100417
F0.64
tp557
sS'facial cleansers'
p558
(I1
S'skin care'
p559
F0.9485981308411215
F0.9458128078817734
tp560
sS'auto repair tools'
p561
(I1
S'replacement parts'
p562
F0.5797101449275363
F0.65625
tp563
sS'accent chests'
p564
(I1
S'furniture'
p565
F0.7997835497835498
F0.8362652232746955
tp566
sS'kids halloween costumes'
p567
(I2
S'home decor accents'
p568
F0.981169474727453
F0.9212121212121213
tp569
sS'bath hardware'
p570
(I1
S'bath'
p571
F0.8428640076886112
F0.9475484606613455
tp572
sS'wrenches & ratchets'
p573
(I1
S'power & hand tools'
p574
F0.9418604651162791
F0.9259259259259259
tp575
sS'indoor seasonal decor fan shop'
p576
(I2
S'home & garden'
p577
F0.8654646324549237
F0.9326923076923077
tp578
sS'umbrellas'
p579
(I1
S'luggage & bags'
p580
F0.8617511520737328
F0.9518716577540107
tp581
sS'eye care'
p582
(I1
S'personal care'
p583
F0.48325358851674644
F0.7524752475247525
tp584
sS'pots'
p585
(I1
S'kitchen & dining'
p586
F0.93646408839779
F0.943952802359882
tp587
sS'garage storage'
p588
(I1
S'storage & organization'
p589
F0.49403341288782815
F0.7536231884057971
tp590
sS'clothing fan shop'
p591
(I2
S'clothing'
p592
F0.7337038908539667
F0.8732782369146006
tp593
sS'decorations'
p594
(I2
S'home decor accents'
p595
F0.9379652605459057
F0.9629629629629629
tp596
sS'bars & wine racks'
p597
(I1
S'furniture'
p598
F0.5458823529411765
F0.7758620689655172
tp599
sS'folding tables & chairs'
p600
(I1
S'furniture'
p601
F0.9800796812749004
F0.9898373983739838
tp602
sS'eyes'
p603
(I1
S'makeup'
p604
F0.9321663019693655
F0.9882629107981221
tp605
sS'bath rugs & mats'
p606
(I1
S'bath'
p607
F0.8292011019283747
F0.9634551495016611
tp608
sS'abrasives'
p609
(I1
S'power & hand tools'
p610
F0.8478027867095391
F0.7930889169827223
tp611
sS'shoes fan shop'
p612
(I2
S'clothing'
p613
F0.3967611336032389
F0.6020408163265306
tp614
sS'tool storage'
p615
(I1
S'power & hand tools'
p616
F0.5312275664034458
F0.745945945945946
tp617
sS'albums'
p618
(I1
S'home decor'
p619
F0.865359477124183
F0.9410876132930514
tp620
sS'pots & planters'
p621
(I1
S'gardening'
p622
F0.9234234234234234
F0.9491289198606272
tp623
sS'auto safety accessories'
p624
(I1
S'replacement parts'
p625
F0.3868378812199037
F0.6846473029045643
tp626
sS'grill tools & accessories'
p627
(I1
S'gardening'
p628
F0.48079306071871125
F0.5077319587628866
tp629
sS'shampoos'
p630
(I1
S'hair care'
p631
F0.9579661016949153
F0.9801840056617127
tp632
sS'kids table & chair sets'
p633
(I1
S'furniture'
p634
F0.9965635738831615
F0.9896551724137931
tp635
sS'kitchen gadgets'
p636
(I1
S'kitchen & dining'
p637
F0.8965873836608066
F0.8921568627450981
tp638
sS'paint tools & supplies'
p639
(I1
S'painting supplies & wall treatments'
p640
F0.5300041963911036
F0.7197149643705463
tp641
sS'halloween masks'
p642
(I2
S'home decor accents'
p643
F1.0
F0.9914821124361158
tp644
sS'juice'
p645
(I1
S'beverages'
p646
F0.911042944785276
F0.9023569023569024
tp647
sS'screws'
p648
(I2
S'nails screws & fasteners'
p649
F0.8449304174950298
F0.96
tp650
sS'ornaments & tree trim'
p651
(I1
S'seasonal decor'
p652
F0.6999352611135089
F0.8964082010174195
tp653
sS'rugs'
p654
(I2
S'area rugs & pads'
p655
F0.9746391087867607
F0.9919879451652027
tp656
sS'bakeware'
p657
(I1
S'kitchen & dining'
p658
F0.954136690647482
F0.9274269557021678
tp659
sS'futons & loungers'
p660
(I1
S'home decor'
p661
F0.6395759717314488
F0.9392265193370166
tp662
sS'billiards'
p663
(I2
S'home & garden'
p664
F0.6230847803881512
F0.5508196721311476
tp665
sS'home decor'
p666
(I2
S'kitchen utensils & gadgets'
p667
F0.5
F0.5093457943925234
tp668
sS'doors'
p669
(I2
S'door hardware & locks'
p670
F0.8764940239043825
F0.85
tp671
sS'tool belts'
p672
(I1
S'power & hand tools'
p673
F0.7218543046357616
F0.7660550458715596
tp674
sS'sports equipment fan shop'
p675
(I2
S'sports equipment'
p676
F0.7921862011637573
F0.8457502623294858
tp677
sS'canopies & shelters'
p678
(I2
S'home & garden'
p679
F0.632016632016632
F0.618421052631579
tp680
sS'travel accessories'
p681
(I2
S'home decor accents'
p682
F0.9481993093241243
F0.8652445369406868
tp683
sS'clocks fan shop'
p684
(I2
S'home & garden'
p685
F0.9982638888888888
F0.9617391304347827
tp686
sS'microwaves'
p687
(I1
S'kitchen & dining'
p688
F0.9432314410480349
F0.8518518518518519
tp689
sS'jewelry storage'
p690
(I2
S'jewelry boxes & organizers'
p691
F0.9205816554809844
F0.9562575941676792
tp692
sS'ceiling fans'
p693
(I2
S'home decor accents'
p694
F0.9707656612529002
F0.9369024856596558
tp695
sS'sheets'
p696
(I1
S'bedding'
p697
F0.9732441471571907
F0.9725085910652921
tp698
sS'daily living aids'
p699
(I1
S'health care'
p700
F0.554147465437788
F0.7546777546777547
tp701
sS'jewelry fan shop'
p702
(I2
S'sports souvenirs'
p703
F0.5267080745341615
F0.5371462264150944
tp704
sS'bath fan shop'
p705
(I2
S'home & garden'
p706
F0.7509025270758123
F0.7644230769230769
tp707
sS'rugs fan shop'
p708
(I2
S'home & garden'
p709
F0.8502633559066968
F0.8389380530973451
tp710
sS'art supplies'
p711
(I2
S'home decor accents'
p712
F0.9483579247977154
F0.9041405269761607
tp713
sS'kids bedding'
p714
(I1
S'bedding'
p715
F0.9345549738219895
F0.9481792717086834
tp716
sS'face'
p717
(I2
S'face'
p718
F0.9760076775431862
F0.9636184857423795
tp719
sS'air compressors'
p720
(I1
S'power & hand tools'
p721
F0.7011589403973509
F0.6953955135773318
tp722
sS'pantries carts & islands'
p723
(I1
S'furniture'
p724
F0.7936344969199178
F0.92496765847348
tp725
sS'party supplies'
p726
(I2
S'home decor accents'
p727
F0.9556048834628191
F0.9018583042973287
tp728
sS'welding & torches'
p729
(I1
S'power & hand tools'
p730
F0.8176129779837775
F0.8577097505668935
tp731
sS'cushions & pillows'
p732
(I1
S'patio furniture & accessories'
p733
F0.9945578231292517
F0.9945280437756497
tp734
sS'tent accessories'
p735
(I2
S'home & garden'
p736
F0.4801980198019802
F0.5154639175257731
tp737
sS'beading & jewelry making'
p738
(I2
S'home decor accents'
p739
F0.9734242709313264
F0.9144720947088669
tp740
sS'golf balls'
p741
(I2
S'sports equipment'
p742
F0.9496402877697842
F0.9962121212121212
tp743
sS'curtain panels'
p744
(I1
S'home decor'
p745
F0.9956140350877193
F0.9647577092511013
tp746
sS'hair color'
p747
(I1
S'hair care'
p748
F0.9528301886792453
F0.9405940594059405
tp749
sS'car covers & car protection'
p750
(I1
S'exterior accessories'
p751
F0.6432160804020101
F0.8125
tp752
sS'patio furniture covers'
p753
(I1
S'patio furniture & accessories'
p754
F0.9652777777777778
F0.9532374100719424
tp755
sS'irons & ironing boards'
p756
(I1
S'kitchen & dining'
p757
F0.6949152542372882
F0.7121951219512195
tp758
sS'generators'
p759
(I1
S'electrical'
p760
F0.5739130434782609
F0.5227272727272727
tp761
sS'sofas loveseats & sectionals'
p762
(I2
S'living room furniture'
p763
F0.9943555973659455
F0.9938505203405865
tp764
sS'vacuum bags & accessories'
p765
(I1
S'kitchen & dining'
p766
F0.5878186968838527
F0.744578313253012
tp767
sS'scarves & valances'
p768
(I1
S'home decor'
p769
F0.9948717948717949
F0.9948453608247423
tp770
sS'sunglasses'
p771
(I1
S'personal care'
p772
F0.8703108252947481
F0.8830049261083743
tp773
sS'skin care sets'
p774
(I1
S'skin care'
p775
F0.7984293193717278
F0.9147540983606557
tp776
sS'automotive fan shop'
p777
(I2
S'auto accessories'
p778
F0.7820437093916125
F0.9131419939577039
tp779
sS'quilts & bedspreads'
p780
(I1
S'bedding'
p781
F0.9605263157894737
F0.9561643835616438
tp782
sS'mens workwear shop'
p783
(I1
S'novelty & special use'
p784
F0.7744565217391305
F0.856140350877193
tp785
sS'drills & drivers'
p786
(I1
S'power & hand tools'
p787
F0.9728063814358231
F0.9727916511367872
tp788
sS'motorcycle accessories'
p789
(I1
S'motorcycle & powersports'
p790
F0.7357512953367875
F0.9014084507042254
tp791
sS'gloves'
p792
(I2
S'accessories'
p793
F0.8651452282157677
F0.9424460431654677
tp794
sS'party packs'
p795
(I1
S'kitchen & dining'
p796
F0.5009794319294809
F0.8093841642228738
tp797
sS'door accessories'
p798
(I1
S'hardware'
p799
F0.8946220930232558
F0.9293257514216084
tp800
sS'mattress pads & toppers'
p801
(I1
S'bedding'
p802
F0.7931034482758621
F0.8537549407114624
tp803
sS'cufflinks'
p804
(I1
S'mens jewelry'
p805
F0.6797385620915033
F0.9011752136752137
tp806
sS'outdoor tableware & picnic'
p807
(I2
S'storage & organization'
p808
F0.8084033613445378
F0.6735966735966736
tp809
sS'baking mixes'
p810
(I1
S'canned dry & packaged foods'
p811
F0.775
F0.8870967741935484
tp812
sS'water bottles & hydration'
p813
(I2
S'home & garden'
p814
F0.7824675324675324
F0.8838174273858921
tp815
sS'lifting equipment'
p816
(I1
S'building supplies'
p817
F0.6480243161094225
F0.800187617260788
tp818
sS'hair styling tools'
p819
(I1
S'hair care'
p820
F0.9366754617414248
F0.9577464788732394
tp821
sS'nutritional bars & drinks'
p822
(I1
S'vitamins & dietary supplements'
p823
F0.9534883720930233
F0.967479674796748
tp824
sS'exterior car decoration'
p825
(I1
S'exterior accessories'
p826
F0.7492063492063492
F0.8580508474576272
tp827
sS'interior car accessories'
p828
(I1
S'replacement parts'
p829
F0.5717255717255717
F0.7636363636363637
tp830
sS'automotive repair'
p831
(I1
S'replacement parts'
p832
F0.5910780669144982
F0.6174004192872118
tp833
sS'heaters'
p834
(I1
S'building supplies'
p835
F0.8029801324503312
F0.9134020618556701
tp836
sS'vitamins'
p837
(I1
S'vitamins & dietary supplements'
p838
F0.6327227569077926
F0.8537782139352306
tp839
sS'coverings & protection'
p840
(I1
S'exterior accessories'
p841
F0.6222222222222222
F0.8348214285714286
tp842
sS'wall decals'
p843
(I2
S'home decor accents'
p844
F0.943252091669698
F0.9205553413035095
tp845
sS'swimwear'
p846
(I2
S'swim'
p847
F0.9536679536679536
F0.9149797570850202
tp848
sS'baseball training & coaching equipment'
p849
(I2
S'home & garden'
p850
F0.421875
F0.5092592592592593
tp851
sS'fans'
p852
(I1
S'lighting & ceiling fans'
p853
F0.6072555205047319
F0.812987012987013
tp854
sS'outdoor tables'
p855
(I1
S'patio furniture & accessories'
p856
F0.9790940766550522
F0.9911032028469751
tp857
sS'tires accessories'
p858
(I1
S'motorcycle & powersports'
p859
F0.4064516129032258
F0.708994708994709
tp860
sS'pillow cases'
p861
(I1
S'bedding'
p862
F0.9794520547945206
F0.9533799533799534
tp863
sS'other fan shop'
p864
(I2
S'home & garden'
p865
F0.6223154530016981
F0.8505617977528089
tp866
sS'sanders & polishers'
p867
(I1
S'power & hand tools'
p868
F0.7652439024390244
F0.8087649402390438
tp869
sS'all rings'
p870
(I3
S'diamond bands'
p871
F0.7860713095634788
F0.8938815882436061
tp872
sS'facial treatments'
p873
(I1
S'skin care'
p874
F0.9484536082474226
F0.9710144927536232
tp875
sS'pot racks & hanging baskets'
p876
(I2
S'storage & organization'
p877
F0.86328125
F0.9321266968325792
tp878
sS'all shirts'
p879
(I1
S'men'
p880
F0.7653478854024557
F0.9019607843137255
tp881
sS'first aid'
p882
(I1
S'health care'
p883
F0.9170383586083853
F0.9309338521400778
tp884
sS'car lighting'
p885
(I2
S'lights & lighting accessories'
p886
F0.940677966101695
F0.954954954954955
tp887
sS'baseball field equipment & maintenance'
p888
(I2
S'home & garden'
p889
F0.75
F0.5375
tp890
sS'table top & multi-game tables'
p891
(I2
S'home & garden'
p892
F0.7328859060402685
F0.6208791208791209
tp893
sS'mens halloween costumes'
p894
(I2
S'home decor accents'
p895
F0.9795373665480427
F0.9445958219800181
tp896
sS'christmas trees'
p897
(I1
S'seasonal decor'
p898
F0.9656192236598891
F0.9789433384379785
tp899
sS'file cabinets'
p900
(I1
S'furniture'
p901
F0.8136120996441281
F0.9256424275560415
tp902
sS'blenders & juicers'
p903
(I1
S'kitchen & dining'
p904
F0.8375796178343949
F0.8288973384030418
tp905
sS'lanterns'
p906
(I2
S'home & garden'
p907
F0.7588424437299035
F0.5423728813559322
tp908
sS'ratchets sockets & accessories'
p909
(I1
S'power & hand tools'
p910
F0.9785522788203753
F0.9833508956796628
tp911
sS'cards stationary & invitations'
p912
(I2
S'home decor accents'
p913
F0.9560185185185185
F0.9007263922518159
tp914
sS'stamping & embossing'
p915
(I2
S'home decor accents'
p916
F0.895320197044335
F0.7579092159559835
tp917
sS'womens shoes'
p918
(I1
S'women'
p919
F0.8910976663785652
F0.9117361784675073
tp920
sS'ceramic tile'
p921
(I1
S'building supplies'
p922
F0.9538112064613832
F0.9457528446679015
tp923
sS'hammers mallets & sledges'
p924
(I1
S'power & hand tools'
p925
F0.9118387909319899
F0.7965009208103131
tp926
sS'canvas wall art'
p927
(I1
S'artwork'
p928
F0.8680089485458613
F0.9633572389063201
tp929
sS'all tops'
p930
(I1
S'women'
p931
F0.7708333333333334
F0.9752252252252253
tp932
sS'cake baking & pastry supplies'
p933
(I1
S'kitchen & dining'
p934
F0.8787878787878788
F0.9704433497536946
tp935
sS'closet storage & organizers'
p936
(I1
S'storage & organization'
p937
F0.46331236897274636
F0.7239819004524887
tp938
sS'novelty lighting'
p939
(I1
S'home decor'
p940
F0.6645274212368728
F0.8244073748902546
tp941
sS'dressers'
p942
(I1
S'furniture'
p943
F0.8536295120983737
F0.979089219330855
tp944
sS'styling products'
p945
(I1
S'hair care'
p946
F0.888135593220339
F0.916030534351145
tp947
sS'all earrings'
p948
(I1
S'earrings'
p949
F0.4929862842892768
F0.48055643376541257
tp950
sS'sleeping bags'
p951
(I2
S'clothing accessories'
p952
F0.5545023696682464
F0.7264957264957265
tp953
sS'molding trim'
p954
(I1
S'building supplies'
p955
F0.9275862068965517
F0.862453531598513
tp956
sS'fountains & ponds'
p957
(I1
S'outdoor decor'
p958
F0.6071055381400209
F0.7039586919104991
tp959
sS'hand creams & lotions'
p960
(I1
S'skin care'
p961
F0.945054945054945
F0.9229651162790697
tp962
sS'cabinet hardware'
p963
(I2
S'cabinet hardware'
p964
F0.9094202898550725
F0.9591633466135459
tp965
sS'sports & duffel bags'
p966
(I1
S'luggage & bags'
p967
F0.93125
F0.9261744966442953
tp968
sS'electronics fan shop'
p969
(I2
S'sports souvenirs'
p970
F0.4413996627318718
F0.5940783190066857
tp971
sS'additional auto replacement parts'
p972
(I1
S'replacement parts'
p973
F0.9742268041237113
F0.9973544973544973
tp974
sS'hair brushes & styling accessories'
p975
(I1
S'hair care'
p976
F0.8153846153846154
F0.9551886792452831
tp977
sS'food prep and processors'
p978
(I1
S'kitchen & dining'
p979
F0.910394265232975
F0.9330708661417323
tp980
sS'other flooring'
p981
(I1
S'building supplies'
p982
F0.7253218884120172
F0.8905325443786982
tp983
sS'heating'
p984
(I1
S'building supplies'
p985
F0.7747252747252747
F0.8971631205673759
tp986
sS'kitchen faucets'
p987
(I1
S'kitchen & bath fixtures'
p988
F0.8787456445993032
F0.9516256938937351
tp989
sS'decorative accessories fan shop'
p990
(I2
S'home & garden'
p991
F0.5057392102846648
F0.9123921924648207
tp992
sS'bathroom aids & safety'
p993
(I1
S'health care'
p994
F0.47434119278779474
F0.7953216374269005
tp995
sS'area rugs'
p996
(I2
S'area rugs & pads'
p997
F0.9878400972792217
F0.9741498692106478
tp998
sS'umbrellas & bases'
p999
(I1
S'patio furniture & accessories'
p1000
F0.9868938401048493
F0.9867197875166003
tp1001
sS'decor'
p1002
(I2
S'home decor accents'
p1003
F0.8478260869565217
F0.8717948717948718
tp1004
sS'window hardware'
p1005
(I1
S'hardware'
p1006
F0.7086956521739131
F0.5828220858895705
tp1007
sS'food prep'
p1008
(I1
S'kitchen & dining'
p1009
F0.9297929792979298
F0.9370764762826719
tp1010
sS'kitchen & dining sets'
p1011
(I1
S'furniture'
p1012
F0.9863636363636363
F0.9855990783410138
tp1013
sS'golf accessories'
p1014
(I2
S'sports equipment'
p1015
F0.8725099601593626
F0.9680365296803652
tp1016
sS'recliners'
p1017
(I1
S'furniture'
p1018
F0.9961685823754789
F0.9961538461538462
tp1019
sS'slipcovers'
p1020
(I2
S'home decor accents'
p1021
F0.94
F0.7133917396745932
tp1022
sS'toddler halloween costumes'
p1023
(I2
S'home decor accents'
p1024
F0.9915254237288136
F0.9743589743589743
tp1025
sS'wine beer & beverage chillers'
p1026
(I1
S'kitchen & dining'
p1027
F0.9329501915708812
F0.973305954825462
tp1028
sS'tool sets'
p1029
(I1
S'power & hand tools'
p1030
F0.7195945945945946
F0.8283031522468142
tp1031
sS'desks'
p1032
(I1
S'furniture'
p1033
F0.8799225306649451
F0.9623379799461971
tp1034
sS'wallpaper & accessories'
p1035
(I1
S'painting supplies & wall treatments'
p1036
F0.7386934673366834
F0.8231292517006803
tp1037
sS'wheelchairs'
p1038
(I1
S'medical supplies & equipment'
p1039
F0.8564593301435407
F0.9888268156424581
tp1040
sS'audio & media towers'
p1041
(I1
S'furniture'
p1042
F0.8551401869158879
F0.8743169398907104
tp1043
sS'kitchen & dining tables'
p1044
(I1
S'furniture'
p1045
F0.9946445959104186
F0.9955947136563876
tp1046
sS'specialty appliances'
p1047
(I1
S'kitchen & dining'
p1048
F0.8538163001293662
F0.8787878787878788
tp1049
sS'all halloween costumes'
p1050
(I2
S'home decor accents'
p1051
F0.9673469387755103
F0.9383317104836092
tp1052
sS'candles & candle holders'
p1053
(I1
S'home decor'
p1054
F0.9390057944495273
F0.9542059110100682
tp1055
sS'christmas lights'
p1056
(I1
S'seasonal decor'
p1057
F0.8742655699177438
F0.9556451612903226
tp1058
sS'all pendants & necklaces'
p1059
(I1
S'necklaces'
p1060
F0.45710184090525247
F0.3792721226676519
tp1061
sS'paint sprayers'
p1062
(I1
S'painting supplies & wall treatments'
p1063
F0.5041322314049587
F0.6147540983606558
tp1064
sS'counter organizers'
p1065
(I1
S'kitchen & dining'
p1066
F0.6281179138321995
F0.9458483754512635
tp1067
sS'water coolers & filtration'
p1068
(I1
S'kitchen & dining'
p1069
F0.8487940630797773
F0.9081967213114754
tp1070
sS'clocks & weather'
p1071
(I1
S'outdoor decor'
p1072
F0.8505303760848602
F0.9285714285714286
tp1073
sS'needlecrafts'
p1074
(I2
S'home decor accents'
p1075
F0.9228820714888827
F0.8648978347057029
tp1076
sS'kitchen & dining fan shop'
p1077
(I2
S'home & garden'
p1078
F0.9162337662337663
F0.9329081030002362
tp1079
sS'clocks'
p1080
(I1
S'home decor'
p1081
F0.9800923254472014
F0.9870473947600824
tp1082
sS'wine racks'
p1083
(I2
S'storage & organization'
p1084
F0.9118198874296435
F0.9207818930041153
tp1085
sS'living room sets'
p1086
(I1
S'furniture'
p1087
F0.9973544973544973
F0.9893899204244032
tp1088
sS'blankets & throws'
p1089
(I1
S'bedding'
p1090
F0.9320776255707762
F0.941824862216779
tp1091
sS'tables'
p1092
(I2
S'home & garden'
p1093
F0.864
F0.8944444444444445
tp1094
sS'drawers & carts'
p1095
(I2
S'other furniture'
p1096
F0.6450892857142857
F0.7301038062283737
tp1097
sS'other home'
p1098
(I2
S'home & garden'
p1099
F0.5759493670886076
F0.6826923076923077
tp1100
sS'screwdrivers'
p1101
(I1
S'power & hand tools'
p1102
F0.9555884529977794
F0.9566227730441518
tp1103
sS'tops'
p1104
(I2
S'tops & tees'
p1105
F0.7685774946921444
F0.9475138121546961
tp1106
sS'protective gear fan shop'
p1107
(I2
S'sports souvenirs'
p1108
F0.8856088560885609
F0.9333333333333333
tp1109
sS'craft storage'
p1110
(I2
S'storage & organization'
p1111
F0.5307820299500832
F0.6959247648902821
tp1112
sS'drawers & cabinet organizers'
p1113
(I2
S'storage & organization'
p1114
F0.8
F0.8928571428571429
tp1115
sS'guest & reception chairs'
p1116
(I1
S'furniture'
p1117
F0.9966777408637874
F0.9966666666666667
tp1118
sS'sports accessories fan shop'
p1119
(I2
S'home & garden'
p1120
F0.5826330532212886
F0.8028846153846154
tp1121
sS'coat racks & umbrella stands'
p1122
(I2
S'other furniture'
p1123
F0.8383458646616542
F0.9043348281016442
tp1124
sS'christmas stockings'
p1125
(I1
S'seasonal decor'
p1126
F0.9225352112676056
F0.9885496183206107
tp1127
sS'bedding sets'
p1128
(I1
S'bedding'
p1129
F0.9558991981672395
F0.9622528460155781
tp1130
sS'cookware sets'
p1131
(I1
S'kitchen & dining'
p1132
F0.9665551839464883
F0.9584775086505191
tp1133
sS'socks & hosiery'
p1134
(I1
S'women'
p1135
F0.8254545454545454
F0.9251101321585903
tp1136
sS'outdoor seating'
p1137
(I1
S'patio furniture & accessories'
p1138
F0.9860396767083027
F0.986214605067064
tp1139
sS'wall art fan shop'
p1140
(I2
S'home & garden'
p1141
F0.7938713173711696
F0.9447685242646147
tp1142
sS'kids lounge seating'
p1143
(I1
S'furniture'
p1144
F0.9348184818481848
F0.9611650485436893
tp1145
sS'bathroom vanities'
p1146
(I1
S'kitchen & bath fixtures'
p1147
F0.8467868338557993
F0.987968533086534
tp1148
sS'party favors & goody bags'
p1149
(I2
S'home decor accents'
p1150
F0.9705521472392638
F0.9190897597977244
tp1151
sS'window blinds'
p1152
(I1
S'home decor'
p1153
F1.0
F0.9924812030075187
tp1154
sS'candy'
p1155
(I1
S'candy & chocolate'
p1156
F0.8736842105263158
F0.8714859437751004
tp1157
sS'diet foods & drinks'
p1158
(I1
S'vitamins & dietary supplements'
p1159
F0.7931034482758621
F0.8826086956521739
tp1160
sS'wallets money & key organizers'
p1161
(I2
S'novelty'
p1162
F0.9287833827893175
F0.9105431309904153
tp1163
sS'air conditioners'
p1164
(I1
S'building supplies'
p1165
F0.6942307692307692
F0.9030470914127424
tp1166
sS'towels'
p1167
(I1
S'bath'
p1168
F0.8381201044386423
F0.8099688473520249
tp1169
sS'mattresses'
p1170
(I2
S'bedroom furniture'
p1171
F0.9548022598870056
F0.9733727810650887
tp1172
sS'sports mats & accessories'
p1173
(I2
S'home & garden'
p1174
F0.5378323108384458
F0.5437262357414449
tp1175
sS'lips'
p1176
(I2
S'lips'
p1177
F0.9515972894482091
F0.987792472024415
tp1178
sS'living room chairs'
p1179
(I1
S'furniture'
p1180
F0.8205904617713853
F0.9787822878228782
tp1181
sS'bedding fan shop'
p1182
(I2
S'home & garden'
p1183
F0.9961256995264743
F0.9978392394122731
tp1184
sS'decorative pillows'
p1185
(I2
S'decorative pillows inserts & covers'
p1186
F0.9819341126461212
F0.996134817563389
tp1187
sS'sauces'
p1188
(I1
S'pantry staples'
p1189
F0.7532467532467533
F0.7442528735632183
tp1190
sS'shower heads'
p1191
(I1
S'kitchen & bath fixtures'
p1192
F0.9585870889159561
F0.9606099110546379
tp1193
sS'weight plates & racks'
p1194
(I2
S'auto accessories'
p1195
F0.4325581395348837
F0.7849462365591398
tp1196
sS'incontinence'
p1197
(I1
S'health care'
p1198
F0.8335745296671491
F0.84375
tp1199
sS'lawn games'
p1200
(I2
S'home & garden'
p1201
F0.486
F0.5637860082304527
tp1202
sS'salt & pepper shakers mills'
p1203
(I1
S'kitchen & dining'
p1204
F0.9299191374663073
F0.9072463768115943
tp1205
sS'patient care'
p1206
(I1
S'health care'
p1207
F0.4782608695652174
F0.7515151515151515
tp1208
sS'hair treatments'
p1209
(I1
S'hair care'
p1210
F0.896551724137931
F0.941025641025641
tp1211
sS'accent rugs'
p1212
(I2
S'area rugs & pads'
p1213
F0.9955056179775281
F1.0
tp1214
sS'bags fan shop'
p1215
(I2
S'clothing accessories'
p1216
F0.6756085444610035
F0.7323529411764705
tp1217
sS'bath faucets'
p1218
(I1
S'kitchen & bath fixtures'
p1219
F0.8537983755375059
F0.9683827644096251
tp1220
sS'nails'
p1221
(I2
S'nails screws & fasteners'
p1222
F0.8504566210045662
F0.8832214765100671
tp1223
sS'mixers & attachments'
p1224
(I1
S'kitchen & dining'
p1225
F0.6732673267326733
F0.8308823529411765
tp1226
sS'pliers'
p1227
(I1
S'power & hand tools'
p1228
F0.9717595944967415
F0.9798807749627422
tp1229
sS'drinkware'
p1230
(I1
S'kitchen & dining'
p1231
F0.9489823609226594
F0.9728338575922219
tp1232
sS'lighting accessories'
p1233
(I1
S'home decor'
p1234
F0.9475277497477296
F0.9243876464323749
tp1235
sS'wall decor'
p1236
(I2
S'home decor accents'
p1237
F0.816400580551524
F0.9457777777777778
tp1238
sS'lawn mowers'
p1239
(I1
S'mowers & outdoor power tools'
p1240
F0.5435897435897435
F0.7075471698113207
tp1241
sS'benches'
p1242
(I1
S'furniture'
p1243
F0.984167517875383
F0.9891022314478464
tp1244
sS'air filters'
p1245
(I1
S'building supplies'
p1246
F0.7837837837837838
F0.875
tp1247
sS'night stands'
p1248
(I1
S'furniture'
p1249
F0.9756838905775076
F0.9875389408099688
tp1250
sS'safety & protection products'
p1251
(I1
S'safety & security'
p1252
F0.8038194444444444
F0.9136069114470843
tp1253
sS'air compressor accessories'
p1254
(I1
S'power & hand tools'
p1255
F0.6336842105263157
F0.7209302325581395
tp1256
sS'body cleansers'
p1257
(I1
S'bath & body'
p1258
F0.6863468634686347
F0.9229390681003584
tp1259
sS'golf bags & carts'
p1260
(I2
S'sports equipment'
p1261
F0.8120300751879699
F0.9120370370370371
tp1262
sS'lights & flashlights'
p1263
(I2
S'home & garden'
p1264
F0.6706349206349206
F0.52465483234714
tp1265
sS'ovens & ranges'
p1266
(I1
S'kitchen & dining'
p1267
F0.7590847913862718
F0.8049645390070922
tp1268
sS'comforters'
p1269
(I1
S'bedding'
p1270
F0.9452449567723343
F0.9878048780487805
tp1271
sS'bench saws'
p1272
(I1
S'power & hand tools'
p1273
F0.8380952380952381
F0.7897727272727273
tp1274
sS'grease guns'
p1275
(I1
S'power & hand tools'
p1276
F0.7
F0.75
tp1277
sS'files & planes'
p1278
(I1
S'power & hand tools'
p1279
F0.8944444444444445
F0.7619047619047619
tp1280
sS'frames'
p1281
(I1
S'home decor'
p1282
F0.8932360742705571
F0.947290274684484
tp1283
sS'cough cold & flu'
p1284
(I1
S'health care'
p1285
F0.6965811965811965
F0.7361963190184049
tp1286
sS'saw blades'
p1287
(I1
S'power & hand tools'
p1288
F0.9356136820925554
F0.5451612903225806
tp1289
sS'hooks racks & hangers'
p1290
(I1
S'storage & organization'
p1291
F0.6934210526315789
F0.855787476280835
tp1292
sS'bookcases'
p1293
(I2
S'other furniture'
p1294
F0.9077844311377246
F0.9346965699208444
tp1295
sS'hitching & towing'
p1296
(I1
S'exterior accessories'
p1297
F0.8648357565966612
F0.9632627646326276
tp1298
sS'salt spices & seasoning'
p1299
(I1
S'canned dry & packaged foods'
p1300
F0.40641711229946526
F0.5947368421052631
tp1301
sS'car floor mats & cargo mats'
p1302
(I2
S'floor mats & cargo liners'
p1303
F0.9903225806451613
F0.995656894679696
tp1304
sS'accent tables'
p1305
(I1
S'furniture'
p1306
F0.9896907216494846
F0.9905849358974359
tp1307
sS'outdoor decor fan shop'
p1308
(I2
S'home & garden'
p1309
F0.8033349681216283
F0.9529914529914529
tp1310
sS'bedroom aids & safety'
p1311
(I1
S'health care'
p1312
F0.6465863453815262
F0.7267080745341615
tp1313
sS'kids beds & headboards'
p1314
(I2
S'bedroom furniture'
p1315
F0.9890470974808324
F0.9944629014396457
tp1316
sS'specialty cookware'
p1317
(I1
S'kitchen & dining'
p1318
F0.9576271186440678
F0.9469026548672567
tp1319
sS'beauty tools & accessories'
p1320
(I1
S'tools & accessories'
p1321
F0.4898949070331447
F0.8564356435643564
tp1322
sS'metal wall art'
p1323
(I2
S'home decor accents'
p1324
F0.9137931034482759
F0.9757412398921833
tp1325
sS'beds'
p1326
(I2
S'bedroom furniture'
p1327
F0.9759398496240601
F0.9917822290703646
tp1328
sS'vanities & vanity stools'
p1329
(I1
S'furniture'
p1330
F0.9157608695652174
F0.9703264094955489
tp1331
sS'floor & cargo mats'
p1332
(I2
S'floor mats & cargo liners'
p1333
F0.9956300072833212
F0.9985369422092173
tp1334
sS'taps & dies'
p1335
(I1
S'power & hand tools'
p1336
F0.8828828828828829
F0.7414965986394558
tp1337
sS'drill & router bits'
p1338
(I1
S'power & hand tools'
p1339
F0.9451158106747231
F0.9525839104954715
tp1340
sS'exercise mats'
p1341
(I2
S'home & garden'
p1342
F0.7272727272727273
F0.7697368421052632
tp1343
sS'hand wrenches'
p1344
(I1
S'power & hand tools'
p1345
F0.9712033949681722
F0.9809612983770287
tp1346
sS'artificial plants & flowers'
p1347
(I2
S'home decor accents'
p1348
F0.9818421921426214
F0.9542703429724277
tp1349
sS'slow cookers rice cookers & steamers'
p1350
(I1
S'kitchen & dining'
p1351
F0.9914529914529915
F0.9741379310344828
tp1352
sS'china cabinets & buffets'
p1353
(I1
S'furniture'
p1354
F0.8732037193575655
F0.8780251694094869
tp1355
sS'mailboxes & address plaques'
p1356
(I1
S'hardware'
p1357
F0.9373795761078998
F0.9249743062692704
tp1358
sS'utensils'
p1359
(I1
S'kitchen & dining'
p1360
F0.9488559892328399
F0.948936170212766
tp1361
sS'feminine care'
p1362
(I1
S'personal care'
p1363
F0.5625
F0.7083333333333334
tp1364
sS'ottomans'
p1365
(I1
S'furniture'
p1366
F0.9543189368770764
F0.9599651871192341
tp1367
sS'sleepwear & robes'
p1368
(I2
S'sleep & lounge'
p1369
F0.824
F0.8446601941747572
tp1370
sS'other home improvement'
p1371
(I1
S'lighting & ceiling fans'
p1372
F0.35377358490566035
F0.8666666666666667
tp1373
sS'dresses'
p1374
(I1
S'women'
p1375
F0.8443708609271523
F0.9882352941176471
tp1376
sS'chisels & gouges'
p1377
(I1
S'power & hand tools'
p1378
F0.91
F0.9230769230769231
tp1379
sS'grinders'
p1380
(I1
S'power & hand tools'
p1381
F0.8657718120805369
F0.8552971576227391
tp1382
sS'posters'
p1383
(I1
S'artwork'
p1384
F0.938138189244384
F0.9885714285714285
tp1385
sS'specialty fasteners'
p1386
(I1
S'hardware'
p1387
F0.4259433962264151
F0.7441860465116279
tp1388
sS'kitchen textiles'
p1389
(I1
S'kitchen & dining'
p1390
F0.7849301397205589
F0.9383343928798474
tp1391
sS'door security'
p1392
(I2
S'door hardware & locks'
p1393
F0.8925619834710744
F0.8641975308641975
tp1394
sS'camping fan shop'
p1395
(I2
S'home & garden'
p1396
F0.9065934065934066
F0.8808080808080808
tp1397
sS'sun care'
p1398
(I1
S'skin care'
p1399
F0.9739130434782609
F0.9345238095238095
tp1400
sS'light bulbs'
p1401
(I1
S'electrical'
p1402
F0.9040070453544694
F0.9459327812956648
tp1403
sS'air purifiers'
p1404
(I1
S'building supplies'
p1405
F0.4358974358974359
F0.6519607843137255
tp1406
sS'chairs & stools'
p1407
(I2
S'home & garden'
p1408
F0.9747474747474747
F0.9896373056994818
tp1409
sS'knives & sharpeners'
p1410
(I1
S'kitchen & dining'
p1411
F0.9459247648902821
F0.9221209610604806
tp1412
sS'fireplace accessories'
p1413
(I1
S'building supplies'
p1414
F0.5127055306427504
F0.7186588921282799
tp1415
sS'ramps lifts and jacks'
p1416
(I1
S'replacement parts'
p1417
F0.45353159851301117
F0.7008196721311475
tp1418
sa.