(lp0
(dp1
S'tv & home theater'
p2
(I0
S'electronics'
p3
F0.7389365530549978
F0.8873517786561265
tp4
sS'computers & tablets'
p5
(I0
S'electronics'
p6
F0.8812385856253703
F0.921074610727393
tp7
sS'audio & mp3'
p8
(I0
S'electronics'
p9
F0.6558745190884877
F0.7295821676743977
tp10
sS'office'
p11
(I1
S'computers & accessories'
p12
F0.6455758774097874
F0.8828483920367535
tp13
sS'cell phones'
p14
(I0
S'cell phones & accessories'
p15
F0.6473491288890851
F0.6681732130370269
tp16
sS'video games'
p17
(I0
S'books & media'
p18
F0.9904464130623589
F0.9924587863907401
tp19
sS'car electronics & gps'
p20
(I1
S'car & vehicle electronics'
p21
F0.5607259398328193
F0.6698820153061225
tp22
sS'mobile phones'
p23
(I0
S'cell phones & accessories'
p24
F0.7200270941521788
F0.7510191282533709
tp25
sS'cameras & camcorders'
p26
(I0
S'electronics'
p27
F0.7678594636745657
F0.862901633332393
tp28
sS'musical instruments'
p29
(I0
S'electronics'
p30
F0.6252035167697818
F0.7416666666666667
tp31
sS'appliances'
p32
(I1
S'home & garden'
p33
F0.8418901603852781
F0.9200976147366764
tp34
sS'movies & music'
p35
(I0
S'books & media'
p36
F0.9976633195531315
F0.9946125284444487
tp37
sa(dp38
S'tv & home theater accessories'
p39
(I2
S'audio & video accessories'
p40
F0.9843026070119633
F0.9870732050021076
tp41
sS'digital camera accessories'
p42
(I1
S'camera & photo'
p43
F0.8700337634706998
F0.8993673914199138
tp44
sS'printers ink & toner'
p45
(I2
S'printers & scanners'
p46
F0.8670918367346939
F0.9187996469549867
tp47
sS'accessories'
p48
(I2
S'computers hardware & software'
p49
F0.9627249357326478
F0.9946595460614153
tp50
sS'tvs'
p51
(I1
S'television & video'
p52
F0.8755743429516633
F0.9473131821998321
tp53
sS'paper'
p54
(I2
S'printers & scanners'
p55
F0.7425742574257426
F0.9
tp56
sS'networking & wireless'
p57
(I2
S'computers hardware & software'
p58
F0.9670874883332514
F0.9825773352974044
tp59
sS'ipad tablets & e-readers'
p60
(I2
S'computers hardware & software'
p61
F0.9825541774567261
F0.9588014981273408
tp62
sS'tv stands mounts & furniture'
p63
(I2
S'audio & video accessories'
p64
F0.9941941941941942
F0.9861055175191301
tp65
sS'projectors & screens'
p66
(I2
S'computers hardware & software'
p67
F0.5163880479136501
F0.7157787407596228
tp68
sS'camcorders'
p69
(I2
S'camcorders'
p70
F0.77465483234714
F0.8841502227880331
tp71
sS'ipad tablets & e-readers accessories'
p72
(I2
S'computers hardware & software'
p73
F0.8173758865248227
F0.9175704989154013
tp74
sS'home audio'
p75
(I1
S'home audio'
p76
F0.3428051238702126
F0.4516312594840668
tp77
sS'binoculars telescopes & optics'
p78
(I2
S'binoculars & scopes'
p79
F0.7483770815692916
F0.9304167452385442
tp80
sS'monitors'
p81
(I1
S'computers & accessories'
p82
F0.9013368035017154
F0.9257120357002231
tp83
sS'office furniture & storage'
p84
(I2
S'office furniture'
p85
F0.35714285714285715
F0.28064952638700946
tp86
sS'tv stands mounts & storage'
p87
(I2
S'audio & video accessories'
p88
F0.9977777777777778
F0.9962138084632517
tp89
sS'camcorder accessories'
p90
(I1
S'camera & photo'
p91
F0.6558823529411765
F0.8082959641255605
tp92
sS'desktop & all-in-one computers'
p93
(I1
S'computers & accessories'
p94
F0.9995176306015147
F0.9998069591235944
tp95
sS'ipad tablet & e-reader accessories'
p96
(I1
S'computers & accessories'
p97
F0.7345131082628034
F0.8951456310679612
tp98
sS'scanners faxes & copiers'
p99
(I2
S'printers & scanners'
p100
F0.44288389513108617
F0.879492600422833
tp101
sS'laptops'
p102
(I1
S'computers & accessories'
p103
F0.9958722572235499
F0.9977639616055847
tp104
sS'ipod & mp3 player accessories'
p105
(I1
S'telephones'
p106
F0.6366746272510165
F0.8519870235198702
tp107
sS'servers & thin clients'
p108
(I1
S'computers & accessories'
p109
F0.9812206572769953
F0.9952153110047847
tp110
sS'telephones & communication'
p111
(I2
S'computers hardware & software'
p112
F0.7349651365485182
F0.8199426820832098
tp113
sS'office & school supplies'
p114
(I2
S'office supplies'
p115
F0.4501166626438169
F0.6717311645365984
tp116
sS'memory cards & readers'
p117
(I1
S'computers & accessories'
p118
F0.8989671361502347
F0.9082932943388343
tp119
sS'marine electronics'
p120
(I2
S'car electronics'
p121
F0.9842829076620825
F0.0
tp122
sS'computer accessories & peripherals'
p123
(I1
S'computers & accessories'
p124
F0.8651577116532694
F0.9148487235911508
tp125
sS'digital cameras'
p126
(I1
S'camera & photo'
p127
F0.8864623828035674
F0.9182252031471688
tp128
sS'microphones & live sound'
p129
(I2
S'computers hardware & software'
p130
F0.8254640182351026
F0.8335305719921104
tp131
sS'computer cards & components'
p132
(I2
S'computers hardware & software'
p133
F0.9247741814076026
F0.9726306150480745
tp134
sS'home audio accessories'
p135
(I2
S'audio & video accessories'
p136
F0.974910394265233
F0.9604779411764706
tp137
sS'software'
p138
(I2
S'computers hardware & software'
p139
F0.9523110785033015
F0.9191063174114021
tp140
sa(dp141
S'ipad accessories'
p142
(I2
S'computers hardware & software'
p143
F0.6941205862758161
F0.9158968206358729
tp144
sS'all-in-one computers'
p145
(I2
S'computers hardware & software'
p146
F0.9639376218323586
F0.8149646107178968
tp147
sS'all monitors'
p148
(I2
S'monitors & displays'
p149
F0.8958046767537826
F0.945873320537428
tp150
sS'servers'
p151
(I2
S'computers hardware & software'
p152
F0.9539319248826291
F0.969547831436481
tp153
sS'point & shoot cameras'
p154
(I2
S'photo accessories'
p155
F0.608164631085829
F0.8671251719394774
tp156
sS'mice & keyboards'
p157
(I2
S'computers hardware & software'
p158
F0.7088170338071238
F0.9356874650475353
tp159
sS'camera bags cases & straps'
p160
(I2
S'photo accessories'
p161
F0.7686832740213523
F0.8402777777777778
tp162
sS'refurbished laptops'
p163
(I2
S'computers hardware & software'
p164
F0.9987633965375103
F0.9884440775897647
tp165
sS'refurbished desktops'
p166
(I2
S'computers hardware & software'
p167
F0.9879659524508365
F0.8199643493761141
tp168
sS'pc laptops'
p169
(I2
S'computers hardware & software'
p170
F0.9901605385810461
F0.9495292887029289
tp171
sS'cables & connectors'
p172
(I2
S'computers hardware & software'
p173
F0.9189524636961648
F0.9712655321447866
tp174
sS'surge protectors & power management'
p175
(I2
S'computers hardware & software'
p176
F0.9689750692520775
F0.9834190966266438
tp177
sS'laptop accessories'
p178
(I2
S'computers hardware & software'
p179
F0.7979153735847442
F0.9184034763016014
tp180
sS'flashes lighting & studio'
p181
(I2
S'photo accessories'
p182
F0.8461538461538461
F0.8255813953488372
tp183
sS'surge protectors & power'
p184
(I2
S'computers hardware & software'
p185
F0.9677996422182469
F0.9833641404805915
tp186
sS'compact system cameras'
p187
(I2
S'digital cameras'
p188
F0.8208530805687204
F0.9699769053117783
tp189
sS'bags cases & straps'
p190
(I2
S'photo accessories'
p191
F0.8396841743906626
F0.8789860997547015
tp192
sS'all laptops'
p193
(I2
S'computers hardware & software'
p194
F0.9963177275118359
F0.9730728616684267
tp195
sS'memory cards'
p196
(I2
S'computers hardware & software'
p197
F0.673469387755102
F0.8039010797631487
tp198
sS'usb flash drives'
p199
(I2
S'computers hardware & software'
p200
F0.9507074395253309
F0.985117618819011
tp201
sS'monitor & screen accessories'
p202
(I2
S'computers hardware & software'
p203
F0.6651142160124196
F0.9179726575525176
tp204
sS'e-reader accessories'
p205
(I2
S'computers hardware & software'
p206
F0.6029661016949153
F0.9423752635277582
tp207
sS'all desktops'
p208
(I2
S'computers hardware & software'
p209
F0.9780918727915194
F0.9002890173410405
tp210
sS'towers only'
p211
(I2
S'computers hardware & software'
p212
F0.9770961145194274
F0.8526580159062369
tp213
sS'hard drives'
p214
(I2
S'computers hardware & software'
p215
F0.9799084941316889
F0.9845209094600081
tp216
sS'filters & accessories'
p217
(I2
S'photo accessories'
p218
F0.9736147757255936
F0.9552845528455285
tp219
sS'digital slr cameras'
p220
(I2
S'digital cameras'
p221
F0.8663943990665111
F0.9191919191919192
tp222
sS'tablet accessories'
p223
(I2
S'computers hardware & software'
p224
F0.5675844074925036
F0.8802058319039451
tp225
sS'camera lenses'
p226
(I2
S'photo accessories'
p227
F0.9556709265175719
F0.9345312717648697
tp228
sa(dp229
a(dp230
a(dp231
a.