(lp0
(dp1
S'baby'
p2
(I0
S'baby products'
p3
F0.5666887856668879
tp4
sS'crafts & sewing'
p5
(I0
S'arts crafts & sewing'
p6
F0.6940959283443301
tp7
sS'health & beauty'
p8
(I0
S'beauty'
p9
F0.8354697811327921
tp10
sS'luggage & bags'
p11
(I1
S'luggage & bags'
p12
F0.9322890849608407
tp13
sS'pet supplies'
p14
(I0
S'pet supplies'
p15
F0.8250470303681806
tp16
sS'clothing & shoes'
p17
(I1
S'women'
p18
F0.6739629084486312
tp19
sS'sports & toys'
p20
(I1
S'fan shop'
p21
F0.6010117054812932
tp22
sS'electronics'
p23
(I0
S'electronics'
p24
F0.691311878006373
tp25
sS'gifts & flowers'
p26
(I0
S'grocery & gourmet food'
p27
F0.3599774838164931
tp28
sa(dp29
S'fitness & nutrition'
p30
(I1
S'skin care'
p31
F0.6643109540636042
tp32
sS'gift baskets'
p33
(I1
S'snack foods'
p34
F0.5440044004400441
tp35
sS'cameras & photo'
p36
(I1
S'camera & photo'
p37
F0.8038599206733095
tp38
sS'jewelry'
p39
(I3
S'diamond bands'
p40
F0.8228227119280397
tp41
sS'art gallery'
p42
(I1
S'artwork'
p43
F0.8469512641610092
tp44
sS'home decor'
p45
(I1
S'home decor'
p46
F0.8950126319084243
tp47
sS'bath & towels'
p48
(I1
S'bath'
p49
F0.9318065506653019
tp50
sS'sewing & needlework'
p51
(I1
S'sewing'
p52
F0.46704225352112677
tp53
sS'beauty products'
p54
(I1
S'fragrance'
p55
F0.5258904837852206
tp56
sS'golf equipment'
p57
(I2
S'sports equipment'
p58
F0.6784132486038899
tp59
sS'furniture'
p60
(I1
S'furniture'
p61
F0.917927290078797
tp62
sS'scrapbooking'
p63
(I1
S'scrapbooking'
p64
F0.7517527227831915
tp65
sS'luggage'
p66
(I2
S'luggage'
p67
F0.9660084169634185
tp68
sS'nursery decor'
p69
(I1
S'nursery'
p70
F0.9972789115646259
tp71
sS'jewelry & watch boxes'
p72
(I1
S'candy & chocolate'
p73
F0.5394581861012956
tp74
sS'crafts'
p75
(I1
S'beading & jewelry-making'
p76
F0.6449371277299801
tp77
sa(dp78
S'hats'
p79
(I3
S'hats & caps'
p80
F0.9794573643410853
tp81
sS'lcd monitors'
p82
(I2
S'monitors'
p83
F0.9148020654044751
tp84
sS'kids furniture'
p85
(I2
S'other furniture'
p86
F0.44564898915909756
tp87
sS'area rugs'
p88
(I2
S'area rugs & pads'
p89
F0.9961037884440023
tp90
sS'bakeware'
p91
(I2
S'bakeware'
p92
F0.6629303442754203
tp93
sS'glasses & barware'
p94
(I2
S'glassware & drinkware'
p95
F0.6344632768361582
tp96
sS'linens & decor'
p97
(I2
S'kitchen & table linens'
p98
F0.7737167428110723
tp99
sS'dining room & bar furniture'
p100
(I2
S'dining room furniture'
p101
F0.6781102557735287
tp102
sS'pdas'
p103
(I2
S'pdas handhelds & accessories'
p104
F0.3870056497175141
tp105
sS'lighting & ceiling fans'
p106
(I2
S'candles & holders'
p107
F0.5878477994918285
tp108
sS'cooking essentials'
p109
(I2
S'kitchen utensils & gadgets'
p110
F0.6781017724413951
tp111
sS'window treatments'
p112
(I2
S'window treatments'
p113
F0.9744756345322918
tp114
sS'duvet covers'
p115
(I2
S'duvet covers & sets'
p116
F0.9918938835666913
tp117
sS'scarves & wraps'
p118
(I3
S'scarves & wraps'
p119
F0.9689722042663219
tp120
sS'computers'
p121
(I2
S'laptop & netbook computer accessories'
p122
F0.4378326076439284
tp123
sa(dp124
S'processors'
p125
(I3
S'fans & cooling'
p126
F0.9985250737463127
tp127
sS'pc memory'
p128
(I3
S'memory'
p129
F0.9751861042183623
tp130
sS'camera batteries & chargers'
p131
(I3
S'batteries & chargers'
p132
F0.9058784676354029
tp133
sa(dp134
a(dp135
a.