(lp0
(dp1
S'tv & home theater'
p2
(I0
S'electronics'
p3
F0.8714065069005033
F0.9507146941109206
tp4
sS'computers & tablets'
p5
(I0
S'electronics'
p6
F0.9477126094560684
F0.9532835452413282
tp7
sS'audio & mp3'
p8
(I0
S'electronics'
p9
F0.7937100514734996
F0.861352622576967
tp10
sS'office'
p11
(I2
S'cables & accessories'
p12
F0.7813365767957294
F0.8623627086396264
tp13
sS'cell phones'
p14
(I0
S'cell phones & accessories'
p15
F0.772660585571219
F0.8581964280800242
tp16
sS'car electronics & gps'
p17
(I0
S'electronics'
p18
F0.8058757257994626
F0.880417249166577
tp19
sS'mobile phones'
p20
(I0
S'cell phones & accessories'
p21
F0.7788750536711034
F0.8329658213891952
tp22
sS'cameras & camcorders'
p23
(I0
S'electronics'
p24
F0.8908271429763792
F0.8976857490864799
tp25
sS'musical instruments'
p26
(I0
S'electronics'
p27
F0.7905531385954009
F0.7492138364779874
tp28
sS'appliances'
p29
(I1
S'kitchen & dining'
p30
F0.8438832819559985
F0.8965172137710168
tp31
sa(dp32
S'tv & home theater accessories'
p33
(I2
S'audio & video accessories'
p34
F0.9829651317540591
F0.9878147847278635
tp35
sS'digital camera accessories'
p36
(I1
S'camera & photo'
p37
F0.8780857321094376
F0.9380899218512129
tp38
sS'refrigerators'
p39
(I2
S'kitchen utensils & gadgets'
p40
F0.8484296768320437
F0.7376609442060086
tp41
sS'printers ink & toner'
p42
(I3
S'printer ink & toner'
p43
F0.7396653543307087
F0.8296739853626082
tp44
sS'portable speakers docks & radios'
p45
(I3
S'cables & interconnects'
p46
F0.9650641025641026
F0.8734639654599801
tp47
sS'tvs'
p48
(I1
S'television & video'
p49
F0.9019675526406628
F0.9927286643704554
tp50
sS'paper'
p51
(I3
S'printer ink & toner'
p52
F0.41211401425178146
F0.6023054755043228
tp53
sS'networking & wireless'
p54
(I1
S'computers & accessories'
p55
F0.9790885221305327
F0.9896561632027584
tp56
sS'ipad tablets & e-readers'
p57
(I1
S'computers & accessories'
p58
F0.9662425344066476
F0.9680193496371943
tp59
sS'tv stands mounts & furniture'
p60
(I2
S'audio & video accessories'
p61
F0.993843786071566
F0.9868370112272551
tp62
sS'vacuum cleaners & floor care'
p63
(I2
S'storage & organization'
p64
F0.7226086956521739
F0.8158844765342961
tp65
sS'car installation parts & accessories'
p66
(I1
S'car & vehicle electronics'
p67
F0.5593834995466909
F0.6920583468395461
tp68
sS'projectors & screens'
p69
(I3
S'cables & interconnects'
p70
F0.9526078234704113
F0.9734140563306133
tp71
sS'camcorders'
p72
(I1
S'camera & photo'
p73
F0.7741935483870968
F0.9532828282828283
tp74
sS'car installation parts'
p75
(I1
S'car & vehicle electronics'
p76
F0.5997544505831799
F0.7103377686796315
tp77
sS'ranges & ovens'
p78
(I2
S'storage & organization'
p79
F0.7422680412371134
F0.6990740740740741
tp80
sS'binoculars telescopes & optics'
p81
(I1
S'camera & photo'
p82
F0.7997823721436343
F0.9670068027210884
tp83
sS'monitors'
p84
(I1
S'computers & accessories'
p85
F0.984916704187303
F0.9851428571428571
tp86
sS'ipad tablets & e-readers accessories'
p87
(I1
S'computers & accessories'
p88
F0.9734660033167496
F0.9659284497444633
tp89
sS'smart tvs & devices'
p90
(I3
S'cables & interconnects'
p91
F0.9300699300699301
F0.9082706766917293
tp92
sS'camcorder accessories'
p93
(I1
S'camera & photo'
p94
F0.8035470668485676
F0.8590831918505942
tp95
sS'desktop & all-in-one computers'
p96
(I1
S'computers & accessories'
p97
F0.9998140918386317
F1.0
tp98
sS'ipad tablet & e-reader accessories'
p99
(I1
S'computers & accessories'
p100
F0.9220321931589537
F0.9262723092510327
tp101
sS'tv stands mounts & storage'
p102
(I2
S'audio & video accessories'
p103
F0.998303647158609
F0.9957519116397621
tp104
sS'accessories'
p105
(I3
S'cables & interconnects'
p106
F0.9977426636568849
F0.997737556561086
tp107
sS'laptops'
p108
(I1
S'computers & accessories'
p109
F0.9982368803152872
F0.9992727272727273
tp110
sS'car audio'
p111
(I1
S'car & vehicle electronics'
p112
F0.6843710997087783
F0.8376899696048632
tp113
sS'ipod & mp3 player accessories'
p114
(I1
S'portable audio & video'
p115
F0.759551392654671
F0.8802531234788252
tp116
sS'servers & thin clients'
p117
(I1
S'computers & accessories'
p118
F0.9764441951766686
F0.9942561746122918
tp119
sS'telephones & communication'
p120
(I3
S'memory cards'
p121
F0.4680880713489409
F0.7933908901458767
tp122
sS'office & school supplies'
p123
(I3
S'printer ink & toner'
p124
F0.9046959199384141
F0.9794077603812117
tp125
sS'memory cards & readers'
p126
(I1
S'computers & accessories'
p127
F0.9728668332738307
F0.9056880733944954
tp128
sS'marine electronics'
p129
(I1
S'car & vehicle electronics'
p130
F0.6896551724137931
F0.8529411764705882
tp131
sS'computer accessories & peripherals'
p132
(I1
S'computers & accessories'
p133
F0.8957130832130832
F0.9610337304916933
tp134
sS'headphones'
p135
(I3
S'cables & interconnects'
p136
F0.9708831469340532
F0.9168487255875538
tp137
sS'digital cameras'
p138
(I1
S'camera & photo'
p139
F0.9376663708961845
F0.9448781641826355
tp140
sS'microphones & live sound'
p141
(I2
S'cables & accessories'
p142
F0.9353635798632691
F0.8897009966777408
tp143
sS'computer cards & components'
p144
(I1
S'computers & accessories'
p145
F0.97523368699468
F0.9924492248898203
tp146
sS'home audio accessories'
p147
(I2
S'audio & video accessories'
p148
F0.9735449735449735
F0.9492753623188406
tp149
sS'software'
p150
(I1
S'computers & accessories'
p151
F0.8082975679542204
F0.863716814159292
tp152
sa(dp153
S'ipad accessories'
p154
(I2
S'touch screen tablet accessories'
p155
F0.920092231851793
F0.9541133771171794
tp156
sS'video graphics cards'
p157
(I2
S'computer components'
p158
F0.9363017934446506
F0.9788639365918098
tp159
sS'imaging video & design software'
p160
(I2
S'cables & accessories'
p161
F0.5379113018597997
F0.5053191489361702
tp162
sS'all-in-one computers'
p163
(I2
S'data storage'
p164
F0.41821561338289964
F0.9022222222222223
tp165
sS'all monitors'
p166
(I2
S'monitors'
p167
F0.9080761654629022
F0.8647866955892987
tp168
sS'servers'
p169
(I2
S'computer components'
p170
F0.514301738642737
F0.9596510359869138
tp171
sS'tablets'
p172
(I2
S'touch screen tablet accessories'
p173
F0.7512473271560941
F0.5417457305502846
tp174
sS'mice & keyboards'
p175
(I2
S'cables & accessories'
p176
F0.9813677975228864
F0.9868305531167691
tp177
sS'camera bags cases & straps'
p178
(I2
S'bags & cases'
p179
F0.7743589743589744
F0.0
tp180
sS'refurbished laptops'
p181
(I2
S'data storage'
p182
F0.7532667179093006
F0.9591836734693877
tp183
sS'racks mounts & accessories'
p184
(I3
S'cables & interconnects'
p185
F0.9304229195088677
F0.7697947214076246
tp186
sS'refurbished desktops'
p187
(I2
S'data storage'
p188
F0.6952112676056338
F0.6685575364667747
tp189
sS'pc laptops'
p190
(I2
S'data storage'
p191
F0.511988011988012
F0.9590243902439024
tp192
sS'cables & connectors'
p193
(I3
S'cables & interconnects'
p194
F0.9885788296243966
F0.9948189614101953
tp195
sS'surge protectors & power management'
p196
(I2
S'cables & accessories'
p197
F0.9051339285714286
F0.935881627620222
tp198
sS'processors'
p199
(I2
S'computer components'
p200
F0.9920993227990971
F0.9988623435722411
tp201
sS'laptop accessories'
p202
(I2
S'laptop & netbook computer accessories'
p203
F0.874242361769678
F0.9408102626986747
tp204
sS'motherboards'
p205
(I2
S'computer components'
p206
F0.9928977272727273
F0.9914163090128756
tp207
sS'surge protectors & power'
p208
(I2
S'cables & accessories'
p209
F0.9332396345748419
F0.9563253012048193
tp210
sS'bags cases & straps'
p211
(I2
S'bags & cases'
p212
F0.8292525773195877
F0.0
tp213
sS'fans & cooling kits'
p214
(I2
S'computer components'
p215
F0.801007556675063
F0.9512578616352201
tp216
sS'routers'
p217
(I2
S'networking products'
p218
F0.8483882394615657
F0.9056367432150313
tp219
sS'usb & firewire cards'
p220
(I2
S'computer components'
p221
F0.6563814866760168
F0.9230769230769231
tp222
sS'memory cards'
p223
(I2
S'cables & accessories'
p224
F0.9614176760879318
F0.9846010265982268
tp225
sS'usb flash drives'
p226
(I2
S'data storage'
p227
F0.9577950043066322
F0.9766187050359713
tp228
sS'monitor & screen accessories'
p229
(I3
S'cables & interconnects'
p230
F0.9128755364806866
F0.9412317818523742
tp231
sS'computer memory'
p232
(I2
S'computer components'
p233
F0.5387638668779715
F0.8701023649841158
tp234
sS'e-reader accessories'
p235
(I2
S'touch screen tablet accessories'
p236
F0.8271452145214522
F0.9620947630922694
tp237
sS'all desktops'
p238
(I2
S'data storage'
p239
F0.5378266850068776
F0.5843989769820972
tp240
sS'hard drives'
p241
(I2
S'data storage'
p242
F0.8870583753928197
F0.9697262479871176
tp243
sS'microphones & accessories'
p244
(I3
S'cables & interconnects'
p245
F0.8576755748912368
F0.8869565217391304
tp246
sS'ethernet hubs & switches'
p247
(I2
S'networking products'
p248
F0.8291880029261156
F0.9589766210851345
tp249
sS'computer power supplies'
p250
(I2
S'computer components'
p251
F0.8663697104677061
F0.9717223650385605
tp252
sS'dvd blu-ray drives'
p253
(I2
S'computer components'
p254
F0.7661406025824964
F0.9044943820224719
tp255
sS'filters & accessories'
p256
(I2
S'accessories'
p257
F0.9896507115135834
F0.0
tp258
sS'tablet accessories'
p259
(I2
S'touch screen tablet accessories'
p260
F0.8012505582849486
F0.9188963210702341
tp261
sS'computer cases & hard drive enclosures'
p262
(I2
S'computer components'
p263
F0.4555133079847909
F0.7312186978297162
tp264
sa(dp265
S'wireless mice'
p266
(I3
S'keyboard & mice accessories'
p267
F0.7202312138728324
F0.8298555377207063
tp268
sS'mouse & wrist pads'
p269
(I3
S'keyboard & mice accessories'
p270
F0.9637883008356546
F0.9898843930635838
tp271
sS'keyboards'
p272
(I3
S'keyboard & mice accessories'
p273
F0.9351969504447268
F0.9850543478260869
tp274
sS'laptop bags & cases'
p275
(I3
S'bags & cases'
p276
F0.9640768588137009
F0.0
tp277
sS'corded mice'
p278
(I3
S'keyboard & mice accessories'
p279
F0.8954703832752613
F0.9688715953307393
tp280
sS'laptop memory'
p281
(I3
S'memory'
p282
F0.9929225645295587
F0.0
tp283
sS'desktop memory'
p284
(I3
S'memory'
p285
F0.9875222816399287
F0.0
tp286
sS'secure digital'
p287
(I3
S'memory cards'
p288
F0.9754098360655737
F0.9630252100840336
tp289
sa(dp290
a(dp291
a.