(lp0
(dp1
S'tv & home theater'
p2
(I0
S'electronics'
p3
F0.7725574211549001
F0.8411582613181994
tp4
sS'computers & tablets'
p5
(I1
S'computers & accessories'
p6
F0.9365169426587662
F0.969588897355502
tp7
sS'audio & mp3'
p8
(I0
S'electronics'
p9
F0.6901691272130777
F0.773101667827726
tp10
sS'office'
p11
(I2
S'cables & accessories'
p12
F0.7813365767957294
F0.8623627086396264
tp13
sS'cell phones'
p14
(I0
S'cell phones & accessories'
p15
F0.7887350896217389
F0.8105944197331176
tp16
sS'video games'
p17
(I0
S'video games'
p18
F0.6625541847282428
F0.980875691997987
tp19
sS'car electronics & gps'
p20
(I1
S'car & vehicle electronics'
p21
F0.6487563913684028
F0.7977558108469143
tp22
sS'mobile phones'
p23
(I0
S'cell phones & accessories'
p24
F0.798196650923143
F0.8004303388918773
tp25
sS'cameras & camcorders'
p26
(I0
S'electronics'
p27
F0.8181287037809866
F0.8369720465211181
tp28
sS'musical instruments'
p29
(I0
S'toys'
p30
F0.8253573648228714
F0.911144578313253
tp31
sS'appliances'
p32
(I1
S'home'
p33
F0.8499218782990583
F0.9348636160381577
tp34
sS'movies & music'
p35
(I0
S'books'
p36
F0.5833132388839157
F0.6626687166070655
tp37
sa(dp38
S'tv & home theater accessories'
p39
(I2
S'audio & video accessories'
p40
F0.9829651317540591
F0.9878147847278635
tp41
sS'digital camera accessories'
p42
(I1
S'camera & photo'
p43
F0.8780857321094376
F0.9380899218512129
tp44
sS'printers ink & toner'
p45
(I3
S'printer ink & toner'
p46
F0.7396653543307087
F0.8296739853626082
tp47
sS'portable speakers docks & radios'
p48
(I3
S'cables & interconnects'
p49
F0.9650641025641026
F0.8734639654599801
tp50
sS'tvs'
p51
(I1
S'television & video'
p52
F0.9019675526406628
F0.9927286643704554
tp53
sS'paper'
p54
(I3
S'printer ink & toner'
p55
F0.41211401425178146
F0.6023054755043228
tp56
sS'networking & wireless'
p57
(I2
S'networking products'
p58
F0.8238934733683421
F0.9325062599590257
tp59
sS'ipad tablets & e-readers'
p60
(I2
S'touch screen tablet accessories'
p61
F0.7701895611529472
F0.5630478759271746
tp62
sS'tv stands mounts & furniture'
p63
(I2
S'audio & video accessories'
p64
F0.993843786071566
F0.9868370112272551
tp65
sS'projectors & screens'
p66
(I3
S'cables & interconnects'
p67
F0.9526078234704113
F0.9734140563306133
tp68
sS'camcorders'
p69
(I1
S'camera & photo'
p70
F0.7741935483870968
F0.9532828282828283
tp71
sS'binoculars telescopes & optics'
p72
(I1
S'camera & photo'
p73
F0.7997823721436343
F0.9670068027210884
tp74
sS'monitors'
p75
(I2
S'monitors'
p76
F0.8683025664115264
F0.8688099559242934
tp77
sS'ipad tablets & e-readers accessories'
p78
(I2
S'touch screen tablet accessories'
p79
F0.9419568822553898
F0.948943661971831
tp80
sS'smart tvs & devices'
p81
(I3
S'cables & interconnects'
p82
F0.9300699300699301
F0.9082706766917293
tp83
sS'camcorder accessories'
p84
(I1
S'camera & photo'
p85
F0.8035470668485676
F0.8590831918505942
tp86
sS'desktop & all-in-one computers'
p87
(I2
S'data storage'
p88
F0.5272355456404536
F0.638046544428773
tp89
sS'ipad tablet & e-reader accessories'
p90
(I2
S'touch screen tablet accessories'
p91
F0.8541606783558494
F0.9389643713456443
tp92
sS'tv stands mounts & storage'
p93
(I2
S'audio & video accessories'
p94
F0.998303647158609
F0.9957519116397621
tp95
sS'accessories'
p96
(I3
S'cables & interconnects'
p97
F0.9977426636568849
F0.997737556561086
tp98
sS'laptops'
p99
(I2
S'data storage'
p100
F0.5392034847542003
F0.944604731679169
tp101
sS'ipod & mp3 player accessories'
p102
(I1
S'portable audio & video'
p103
F0.759551392654671
F0.8802531234788252
tp104
sS'servers & thin clients'
p105
(I2
S'computer components'
p106
F0.514301738642737
F0.9596510359869138
tp107
sS'telephones & communication'
p108
(I3
S'memory cards'
p109
F0.4680880713489409
F0.7933908901458767
tp110
sS'office & school supplies'
p111
(I3
S'printer ink & toner'
p112
F0.9046959199384141
F0.9794077603812117
tp113
sS'memory cards & readers'
p114
(I1
S'computers & accessories'
p115
F0.9728668332738307
F0.9056880733944954
tp116
sS'marine electronics'
p117
(I2
S'car electronics'
p118
F0.9837728194726166
F0.0
tp119
sS'computer accessories & peripherals'
p120
(I3
S'cables & interconnects'
p121
F0.7763498075998077
F0.9076264787314372
tp122
sS'headphones'
p123
(I3
S'cables & interconnects'
p124
F0.9708831469340532
F0.9168487255875538
tp125
sS'digital cameras'
p126
(I1
S'camera & photo'
p127
F0.9376663708961845
F0.9448781641826355
tp128
sS'computer cards & components'
p129
(I2
S'computer components'
p130
F0.6421508220372096
F0.9113971448630939
tp131
sS'home audio accessories'
p132
(I2
S'audio & video accessories'
p133
F0.9735449735449735
F0.9492753623188406
tp134
sS'software'
p135
(I2
S'cables & accessories'
p136
F0.5379113018597997
F0.5053191489361702
tp137
sa(dp138
S'bags cases & straps'
p139
(I2
S'bags & cases'
p140
F0.8292525773195877
F0.0
tp141
sS'filters & accessories'
p142
(I2
S'accessories'
p143
F0.9896507115135834
F0.0
tp144
sS'memory cards'
p145
(I2
S'cables & accessories'
p146
F0.9614176760879318
F0.9846010265982268
tp147
sS'camera bags cases & straps'
p148
(I2
S'bags & cases'
p149
F0.7743589743589744
F0.0
tp150
sS'computer memory'
p151
(I3
S'memory'
p152
F0.986053882725832
F0.0
tp153
sS'fans & cooling kits'
p154
(I3
S'fans & cooling'
p155
F0.9974811083123426
F0.0
tp156
sa(dp157
S'secure digital'
p158
(I3
S'memory cards'
p159
F0.9754098360655737
F0.9630252100840336
tp160
sa(dp161
a(dp162
a.